---
triple:          'x86_64-apple-darwin'
binary-path:     '/Users/elijahshifflett/Desktop/Penn State /Spring 2024/AERSP 424/AERSP424_HW1/main'
relocations:
  - { offsetInCU: 0x5C, offset: 0x5C, size: 0x8, addend: 0x0, symName: __ZNSt3__1L19piecewise_constructE, symObjAddr: 0x6A3F, symBinAddr: 0x100007710, symSize: 0x0 }
  - { offsetInCU: 0x818E, offset: 0x818E, size: 0x8, addend: 0x0, symName: __ZNSt3__124__put_character_sequenceB7v160006IcNS_11char_traitsIcEEEERNS_13basic_ostreamIT_T0_EES7_PKS4_m, symObjAddr: 0x5AD0, symBinAddr: 0x100006C60, symSize: 0x1F0 }
  - { offsetInCU: 0x9ADE, offset: 0x9ADE, size: 0x8, addend: 0x0, symName: __ZNSt3__1lsB7v160006INS_11char_traitsIcEEEERNS_13basic_ostreamIcT_EES6_PKc, symObjAddr: 0x770, symBinAddr: 0x100001900, symSize: 0x40 }
  - { offsetInCU: 0x9B24, offset: 0x9B24, size: 0x8, addend: 0x0, symName: __ZNSt3__14endlB7v160006IcNS_11char_traitsIcEEEERNS_13basic_ostreamIT_T0_EES7_, symObjAddr: 0x7D0, symBinAddr: 0x100001960, symSize: 0x50 }
  - { offsetInCU: 0x9B64, offset: 0x9B64, size: 0x8, addend: 0x0, symName: __ZNSt3__1lsB7v160006INS_11char_traitsIcEEEERNS_13basic_ostreamIcT_EES6_c, symObjAddr: 0x820, symBinAddr: 0x1000019B0, symSize: 0x30 }
  - { offsetInCU: 0x9BAA, offset: 0x9BAA, size: 0x8, addend: 0x0, symName: __ZNSt3__1lsB7v160006IcNS_11char_traitsIcEENS_9allocatorIcEEEERNS_13basic_ostreamIT_T0_EES9_RKNS_12basic_stringIS6_S7_T1_EE, symObjAddr: 0x1390, symBinAddr: 0x100002520, symSize: 0x50 }
  - { offsetInCU: 0x9C02, offset: 0x9C02, size: 0x8, addend: 0x0, symName: __ZNSt3__119__debug_db_insert_cB7v160006INS_12basic_stringIcNS_11char_traitsIcEENS_9allocatorIcEEEEEEvPT_, symObjAddr: 0x1B60, symBinAddr: 0x100002CF0, symSize: 0x10 }
  - { offsetInCU: 0x9C9D, offset: 0x9C9D, size: 0x8, addend: 0x0, symName: __ZNSt3__116forward_as_tupleB7v160006IJRKNS_12basic_stringIcNS_11char_traitsIcEENS_9allocatorIcEEEEEEENS_5tupleIJDpOT_EEESC_, symObjAddr: 0x20B0, symBinAddr: 0x100003240, symSize: 0x30 }
  - { offsetInCU: 0x9CD6, offset: 0x9CD6, size: 0x8, addend: 0x0, symName: __ZNSt3__116forward_as_tupleB7v160006IJEEENS_5tupleIJDpOT_EEES4_, symObjAddr: 0x20E0, symBinAddr: 0x100003270, symSize: 0x10 }
  - { offsetInCU: 0x9CFA, offset: 0x9CFA, size: 0x8, addend: 0x0, symName: __ZNSt3__1ltB7v160006IcNS_11char_traitsIcEENS_9allocatorIcEEEEbRKNS_12basic_stringIT_T0_T1_EESB_, symObjAddr: 0x2730, symBinAddr: 0x1000038C0, symSize: 0x30 }
  - { offsetInCU: 0x9D76, offset: 0x9D76, size: 0x8, addend: 0x0, symName: __ZNSt3__13minB7v160006ImEERKT_S3_S3_, symObjAddr: 0x2A00, symBinAddr: 0x100003B90, symSize: 0x30 }
  - { offsetInCU: 0x9DB9, offset: 0x9DB9, size: 0x8, addend: 0x0, symName: __ZNSt3__118__constexpr_memcmpB7v160006IcEEiPKT_S3_m, symObjAddr: 0x2AE0, symBinAddr: 0x100003C70, symSize: 0x30 }
  - { offsetInCU: 0x9E0A, offset: 0x9E0A, size: 0x8, addend: 0x0, symName: __ZNSt3__112__to_addressB7v160006IKcEEPT_S3_, symObjAddr: 0x2B10, symBinAddr: 0x100003CA0, symSize: 0x10 }
  - { offsetInCU: 0x9E72, offset: 0x9E72, size: 0x8, addend: 0x0, symName: __ZNSt3__13minB7v160006ImNS_6__lessImmEEEERKT_S5_S5_T0_, symObjAddr: 0x2BD0, symBinAddr: 0x100003D60, symSize: 0x50 }
  - { offsetInCU: 0x9F25, offset: 0x9F25, size: 0x8, addend: 0x0, symName: __ZNSt3__117__libcpp_allocateB7v160006Emm, symObjAddr: 0x2F10, symBinAddr: 0x1000040A0, symSize: 0x20 }
  - { offsetInCU: 0x9F62, offset: 0x9F62, size: 0x8, addend: 0x0, symName: __ZNSt3__121__libcpp_operator_newB7v160006IJmEEEPvDpT_, symObjAddr: 0x2F50, symBinAddr: 0x1000040E0, symSize: 0x20 }
  - { offsetInCU: 0x9FA6, offset: 0x9FA6, size: 0x8, addend: 0x0, symName: __ZNSt3__13getB7v160006ILm0EJRKNS_12basic_stringIcNS_11char_traitsIcEENS_9allocatorIcEEEEEEERNS_13tuple_elementIXT_ENS_5tupleIJDpT0_EEEE4typeERSD_, symObjAddr: 0x3190, symBinAddr: 0x100004320, symSize: 0x20 }
  - { offsetInCU: 0x9FE9, offset: 0x9FE9, size: 0x8, addend: 0x0, symName: __ZNSt3__127__tree_balance_after_insertB7v160006IPNS_16__tree_node_baseIPvEEEEvT_S5_, symObjAddr: 0x34E0, symBinAddr: 0x100004670, symSize: 0x320 }
  - { offsetInCU: 0xA065, offset: 0xA065, size: 0x8, addend: 0x0, symName: __ZNSt3__120__tree_is_left_childB7v160006IPNS_16__tree_node_baseIPvEEEEbT_, symObjAddr: 0x3840, symBinAddr: 0x1000049D0, symSize: 0x30 }
  - { offsetInCU: 0xA09A, offset: 0xA09A, size: 0x8, addend: 0x0, symName: __ZNSt3__118__tree_left_rotateB7v160006IPNS_16__tree_node_baseIPvEEEEvT_, symObjAddr: 0x3870, symBinAddr: 0x100004A00, symSize: 0xD0 }
  - { offsetInCU: 0xA0DC, offset: 0xA0DC, size: 0x8, addend: 0x0, symName: __ZNSt3__119__tree_right_rotateB7v160006IPNS_16__tree_node_baseIPvEEEEvT_, symObjAddr: 0x3940, symBinAddr: 0x100004AD0, symSize: 0xC0 }
  - { offsetInCU: 0xA11E, offset: 0xA11E, size: 0x8, addend: 0x0, symName: __ZNSt3__119__libcpp_deallocateB7v160006EPvmm, symObjAddr: 0x3EF0, symBinAddr: 0x100005080, symSize: 0x30 }
  - { offsetInCU: 0xA166, offset: 0xA166, size: 0x8, addend: 0x0, symName: __ZNSt3__127__do_deallocate_handle_sizeB7v160006IJEEEvPvmDpT_, symObjAddr: 0x3F20, symBinAddr: 0x1000050B0, symSize: 0x20 }
  - { offsetInCU: 0xA1A4, offset: 0xA1A4, size: 0x8, addend: 0x0, symName: __ZNSt3__124__libcpp_operator_deleteB7v160006IJPvEEEvDpT_, symObjAddr: 0x3F40, symBinAddr: 0x1000050D0, symSize: 0x20 }
  - { offsetInCU: 0xA281, offset: 0xA281, size: 0x8, addend: 0x0, symName: __ZNSt3__116forward_as_tupleB7v160006IJNS_12basic_stringIcNS_11char_traitsIcEENS_9allocatorIcEEEEEEENS_5tupleIJDpOT_EEESA_, symObjAddr: 0x4F10, symBinAddr: 0x1000060A0, symSize: 0x30 }
  - { offsetInCU: 0xA2BA, offset: 0xA2BA, size: 0x8, addend: 0x0, symName: __ZNSt3__13getB7v160006ILm0EJONS_12basic_stringIcNS_11char_traitsIcEENS_9allocatorIcEEEEEEERNS_13tuple_elementIXT_ENS_5tupleIJDpT0_EEEE4typeERSC_, symObjAddr: 0x51A0, symBinAddr: 0x100006330, symSize: 0x20 }
  - { offsetInCU: 0xA2FD, offset: 0xA2FD, size: 0x8, addend: 0x0, symName: __ZNSt3__115__debug_db_swapB7v160006INS_12basic_stringIcNS_11char_traitsIcEENS_9allocatorIcEEEEEEvPT_S8_, symObjAddr: 0x5290, symBinAddr: 0x100006420, symSize: 0x10 }
  - { offsetInCU: 0xA351, offset: 0xA351, size: 0x8, addend: 0x0, symName: __ZNSt3__1eqB7v160006IcNS_11char_traitsIcEENS_9allocatorIcEEEEbRKNS_12basic_stringIT_T0_T1_EEPKS6_, symObjAddr: 0x57F0, symBinAddr: 0x100006980, symSize: 0x90 }
  - { offsetInCU: 0xA3B8, offset: 0xA3B8, size: 0x8, addend: 0x0, symName: __ZNSt3__118__constexpr_strlenB7v160006EPKc, symObjAddr: 0x58B0, symBinAddr: 0x100006A40, symSize: 0x20 }
  - { offsetInCU: 0xA3E4, offset: 0xA3E4, size: 0x8, addend: 0x0, symName: __ZNSt3__116__pad_and_outputB7v160006IcNS_11char_traitsIcEEEENS_19ostreambuf_iteratorIT_T0_EES6_PKS4_S8_S8_RNS_8ios_baseES4_, symObjAddr: 0x5CE0, symBinAddr: 0x100006E70, symSize: 0x220 }
  - { offsetInCU: 0xA4B4, offset: 0xA4B4, size: 0x8, addend: 0x0, symName: __ZNSt3__19use_facetB7v160006INS_5ctypeIcEEEERKT_RKNS_6localeE, symObjAddr: 0x6250, symBinAddr: 0x1000073E0, symSize: 0x30 }
  - { offsetInCU: 0xAAAD, offset: 0xAAAD, size: 0x8, addend: 0x0, symName: __ZSt28__throw_bad_array_new_lengthB7v160006v, symObjAddr: 0x2ED0, symBinAddr: 0x100004060, symSize: 0x40 }
  - { offsetInCU: 0xD6FE, offset: 0xD6FE, size: 0x8, addend: 0x0, symName: __Z9Question1dd, symObjAddr: 0x0, symBinAddr: 0x100001190, symSize: 0x770 }
  - { offsetInCU: 0xD96E, offset: 0xD96E, size: 0x8, addend: 0x0, symName: __ZNSt3__113basic_ostreamIcNS_11char_traitsIcEEElsB7v160006EPFRS3_S4_E, symObjAddr: 0x7B0, symBinAddr: 0x100001940, symSize: 0x20 }
  - { offsetInCU: 0xD9A1, offset: 0xD9A1, size: 0x8, addend: 0x0, symName: __Z3absB7v160006d, symObjAddr: 0x850, symBinAddr: 0x1000019E0, symSize: 0x20 }
  - { offsetInCU: 0xD9CE, offset: 0xD9CE, size: 0x8, addend: 0x0, symName: _main, symObjAddr: 0x870, symBinAddr: 0x100001A00, symSize: 0x8B0 }
  - { offsetInCU: 0xDAFC, offset: 0xDAFC, size: 0x8, addend: 0x0, symName: __ZNSt3__112basic_stringIcNS_11char_traitsIcEENS_9allocatorIcEEEC1B7v160006IDnEEPKc, symObjAddr: 0x1120, symBinAddr: 0x1000022B0, symSize: 0x30 }
  - { offsetInCU: 0xDC96, offset: 0xDC96, size: 0x8, addend: 0x0, symName: __ZN5PlaneC1ERKNSt3__112basic_stringIcNS0_11char_traitsIcEENS0_9allocatorIcEEEES8_, symObjAddr: 0x1150, symBinAddr: 0x1000022E0, symSize: 0x30 }
  - { offsetInCU: 0xDCDC, offset: 0xDCDC, size: 0x8, addend: 0x0, symName: __ZN5Plane6setVelEd, symObjAddr: 0x1180, symBinAddr: 0x100002310, symSize: 0x20 }
  - { offsetInCU: 0xDD10, offset: 0xDD10, size: 0x8, addend: 0x0, symName: __ZN5Plane7operateEd, symObjAddr: 0x11A0, symBinAddr: 0x100002330, symSize: 0x180 }
  - { offsetInCU: 0xDD6F, offset: 0xDD6F, size: 0x8, addend: 0x0, symName: __ZNK5Plane6getPosEv, symObjAddr: 0x1320, symBinAddr: 0x1000024B0, symSize: 0x20 }
  - { offsetInCU: 0xDE0D, offset: 0xDE0D, size: 0x8, addend: 0x0, symName: __ZN5PilotC1ERKNSt3__112basic_stringIcNS0_11char_traitsIcEENS0_9allocatorIcEEEEP5Plane, symObjAddr: 0x1340, symBinAddr: 0x1000024D0, symSize: 0x30 }
  - { offsetInCU: 0xDE55, offset: 0xDE55, size: 0x8, addend: 0x0, symName: __ZNK5Plane8getAtSCEEv, symObjAddr: 0x1370, symBinAddr: 0x100002500, symSize: 0x20 }
  - { offsetInCU: 0xDE7B, offset: 0xDE7B, size: 0x8, addend: 0x0, symName: __ZNK5Pilot7getNameEv, symObjAddr: 0x13E0, symBinAddr: 0x100002570, symSize: 0x30 }
  - { offsetInCU: 0xDEA1, offset: 0xDEA1, size: 0x8, addend: 0x0, symName: __ZN5PlaneD1Ev, symObjAddr: 0x1410, symBinAddr: 0x1000025A0, symSize: 0x20 }
  - { offsetInCU: 0xDECB, offset: 0xDECB, size: 0x8, addend: 0x0, symName: __ZN5PilotD1Ev, symObjAddr: 0x1430, symBinAddr: 0x1000025C0, symSize: 0x20 }
  - { offsetInCU: 0xDEF5, offset: 0xDEF5, size: 0x8, addend: 0x0, symName: __ZN5PlaneC2ERKNSt3__112basic_stringIcNS0_11char_traitsIcEENS0_9allocatorIcEEEES8_, symObjAddr: 0x1450, symBinAddr: 0x1000025E0, symSize: 0x460 }
  - { offsetInCU: 0xDF3B, offset: 0xDF3B, size: 0x8, addend: 0x0, symName: __ZNSt3__112basic_stringIcNS_11char_traitsIcEENS_9allocatorIcEEEC1B7v160006Ev, symObjAddr: 0x18B0, symBinAddr: 0x100002A40, symSize: 0x20 }
  - { offsetInCU: 0xDF65, offset: 0xDF65, size: 0x8, addend: 0x0, symName: __ZNSt3__13mapINS_12basic_stringIcNS_11char_traitsIcEENS_9allocatorIcEEEENS0_IS6_iNS_4lessIS6_EENS4_INS_4pairIKS6_iEEEEEES8_NS4_INS9_ISA_SD_EEEEEC1B7v160006Ev, symObjAddr: 0x18D0, symBinAddr: 0x100002A60, symSize: 0x20 }
  - { offsetInCU: 0xDF8F, offset: 0xDF8F, size: 0x8, addend: 0x0, symName: __ZNSt3__13mapINS_12basic_stringIcNS_11char_traitsIcEENS_9allocatorIcEEEENS0_IS6_iNS_4lessIS6_EENS4_INS_4pairIKS6_iEEEEEES8_NS4_INS9_ISA_SD_EEEEEixERSA_, symObjAddr: 0x18F0, symBinAddr: 0x100002A80, symSize: 0x70 }
  - { offsetInCU: 0xDFC6, offset: 0xDFC6, size: 0x8, addend: 0x0, symName: __ZNSt3__13mapINS_12basic_stringIcNS_11char_traitsIcEENS_9allocatorIcEEEEiNS_4lessIS6_EENS4_INS_4pairIKS6_iEEEEEixERSA_, symObjAddr: 0x1960, symBinAddr: 0x100002AF0, symSize: 0x70 }
  - { offsetInCU: 0xDFFD, offset: 0xDFFD, size: 0x8, addend: 0x0, symName: __ZNSt3__13mapINS_12basic_stringIcNS_11char_traitsIcEENS_9allocatorIcEEEEiNS_4lessIS6_EENS4_INS_4pairIKS6_iEEEEEixEOS6_, symObjAddr: 0x19D0, symBinAddr: 0x100002B60, symSize: 0x70 }
  - { offsetInCU: 0xE034, offset: 0xE034, size: 0x8, addend: 0x0, symName: __ZNSt3__13mapINS_12basic_stringIcNS_11char_traitsIcEENS_9allocatorIcEEEENS0_IS6_iNS_4lessIS6_EENS4_INS_4pairIKS6_iEEEEEES8_NS4_INS9_ISA_SD_EEEEEixEOS6_, symObjAddr: 0x1A40, symBinAddr: 0x100002BD0, symSize: 0x70 }
  - { offsetInCU: 0xE06B, offset: 0xE06B, size: 0x8, addend: 0x0, symName: __ZNSt3__13mapINS_12basic_stringIcNS_11char_traitsIcEENS_9allocatorIcEEEENS0_IS6_iNS_4lessIS6_EENS4_INS_4pairIKS6_iEEEEEES8_NS4_INS9_ISA_SD_EEEEED1B7v160006Ev, symObjAddr: 0x1AB0, symBinAddr: 0x100002C40, symSize: 0x20 }
  - { offsetInCU: 0xE095, offset: 0xE095, size: 0x8, addend: 0x0, symName: __ZNSt3__112basic_stringIcNS_11char_traitsIcEENS_9allocatorIcEEEC2B7v160006Ev, symObjAddr: 0x1AD0, symBinAddr: 0x100002C60, symSize: 0x50 }
  - { offsetInCU: 0xE0C4, offset: 0xE0C4, size: 0x8, addend: 0x0, symName: __ZNSt3__117__compressed_pairINS_12basic_stringIcNS_11char_traitsIcEENS_9allocatorIcEEE5__repES5_EC1B7v160006INS_18__default_init_tagESA_EEOT_OT0_, symObjAddr: 0x1B20, symBinAddr: 0x100002CB0, symSize: 0x30 }
  - { offsetInCU: 0xE11C, offset: 0xE11C, size: 0x8, addend: 0x0, symName: __ZNSt3__112basic_stringIcNS_11char_traitsIcEENS_9allocatorIcEEE14__default_initB7v160006Ev, symObjAddr: 0x1B70, symBinAddr: 0x100002D00, symSize: 0x50 }
  - { offsetInCU: 0xE142, offset: 0xE142, size: 0x8, addend: 0x0, symName: __ZNSt3__117__compressed_pairINS_12basic_stringIcNS_11char_traitsIcEENS_9allocatorIcEEE5__repES5_EC2B7v160006INS_18__default_init_tagESA_EEOT_OT0_, symObjAddr: 0x1BC0, symBinAddr: 0x100002D50, symSize: 0x30 }
  - { offsetInCU: 0xE19A, offset: 0xE19A, size: 0x8, addend: 0x0, symName: __ZNSt3__122__compressed_pair_elemINS_12basic_stringIcNS_11char_traitsIcEENS_9allocatorIcEEE5__repELi0ELb0EEC2B7v160006ENS_18__default_init_tagE, symObjAddr: 0x1BF0, symBinAddr: 0x100002D80, symSize: 0x10 }
  - { offsetInCU: 0xE1CF, offset: 0xE1CF, size: 0x8, addend: 0x0, symName: __ZNSt3__122__compressed_pair_elemINS_9allocatorIcEELi1ELb1EEC2B7v160006ENS_18__default_init_tagE, symObjAddr: 0x1C00, symBinAddr: 0x100002D90, symSize: 0x20 }
  - { offsetInCU: 0xE204, offset: 0xE204, size: 0x8, addend: 0x0, symName: __ZNSt3__19allocatorIcEC2B7v160006Ev, symObjAddr: 0x1C20, symBinAddr: 0x100002DB0, symSize: 0x20 }
  - { offsetInCU: 0xE22E, offset: 0xE22E, size: 0x8, addend: 0x0, symName: __ZNSt3__116__non_trivial_ifILb1ENS_9allocatorIcEEEC2B7v160006Ev, symObjAddr: 0x1C40, symBinAddr: 0x100002DD0, symSize: 0x10 }
  - { offsetInCU: 0xE258, offset: 0xE258, size: 0x8, addend: 0x0, symName: __ZNSt3__117__compressed_pairINS_12basic_stringIcNS_11char_traitsIcEENS_9allocatorIcEEE5__repES5_E5firstB7v160006Ev, symObjAddr: 0x1C50, symBinAddr: 0x100002DE0, symSize: 0x20 }
  - { offsetInCU: 0xE27E, offset: 0xE27E, size: 0x8, addend: 0x0, symName: __ZNSt3__122__compressed_pair_elemINS_12basic_stringIcNS_11char_traitsIcEENS_9allocatorIcEEE5__repELi0ELb0EE5__getB7v160006Ev, symObjAddr: 0x1C70, symBinAddr: 0x100002E00, symSize: 0x10 }
  - { offsetInCU: 0xE2A4, offset: 0xE2A4, size: 0x8, addend: 0x0, symName: __ZNSt3__13mapINS_12basic_stringIcNS_11char_traitsIcEENS_9allocatorIcEEEENS0_IS6_iNS_4lessIS6_EENS4_INS_4pairIKS6_iEEEEEES8_NS4_INS9_ISA_SD_EEEEEC2B7v160006Ev, symObjAddr: 0x1C80, symBinAddr: 0x100002E10, symSize: 0x30 }
  - { offsetInCU: 0xE2CE, offset: 0xE2CE, size: 0x8, addend: 0x0, symName: __ZNSt3__119__map_value_compareINS_12basic_stringIcNS_11char_traitsIcEENS_9allocatorIcEEEENS_12__value_typeIS6_NS_3mapIS6_iNS_4lessIS6_EENS4_INS_4pairIKS6_iEEEEEEEESA_Lb1EEC1B7v160006ESA_, symObjAddr: 0x1CB0, symBinAddr: 0x100002E40, symSize: 0x20 }
  - { offsetInCU: 0xE307, offset: 0xE307, size: 0x8, addend: 0x0, symName: __ZNSt3__16__treeINS_12__value_typeINS_12basic_stringIcNS_11char_traitsIcEENS_9allocatorIcEEEENS_3mapIS7_iNS_4lessIS7_EENS5_INS_4pairIKS7_iEEEEEEEENS_19__map_value_compareIS7_SG_SA_Lb1EEENS5_ISG_EEEC1ERKSI_, symObjAddr: 0x1CD0, symBinAddr: 0x100002E60, symSize: 0x30 }
  - { offsetInCU: 0xE342, offset: 0xE342, size: 0x8, addend: 0x0, symName: __ZNSt3__119__map_value_compareINS_12basic_stringIcNS_11char_traitsIcEENS_9allocatorIcEEEENS_12__value_typeIS6_NS_3mapIS6_iNS_4lessIS6_EENS4_INS_4pairIKS6_iEEEEEEEESA_Lb1EEC2B7v160006ESA_, symObjAddr: 0x1D00, symBinAddr: 0x100002E90, symSize: 0x10 }
  - { offsetInCU: 0xE37B, offset: 0xE37B, size: 0x8, addend: 0x0, symName: __ZNSt3__16__treeINS_12__value_typeINS_12basic_stringIcNS_11char_traitsIcEENS_9allocatorIcEEEENS_3mapIS7_iNS_4lessIS7_EENS5_INS_4pairIKS7_iEEEEEEEENS_19__map_value_compareIS7_SG_SA_Lb1EEENS5_ISG_EEEC2ERKSI_, symObjAddr: 0x1D10, symBinAddr: 0x100002EA0, symSize: 0x80 }
  - { offsetInCU: 0xE3B6, offset: 0xE3B6, size: 0x8, addend: 0x0, symName: __ZNSt3__117__compressed_pairINS_15__tree_end_nodeIPNS_16__tree_node_baseIPvEEEENS_9allocatorINS_11__tree_nodeINS_12__value_typeINS_12basic_stringIcNS_11char_traitsIcEENS7_IcEEEENS_3mapISE_iNS_4lessISE_EENS7_INS_4pairIKSE_iEEEEEEEES3_EEEEEC1B7v160006ILb1EvEEv, symObjAddr: 0x1D90, symBinAddr: 0x100002F20, symSize: 0x20 }
  - { offsetInCU: 0xE3F0, offset: 0xE3F0, size: 0x8, addend: 0x0, symName: __ZNSt3__117__compressed_pairImNS_19__map_value_compareINS_12basic_stringIcNS_11char_traitsIcEENS_9allocatorIcEEEENS_12__value_typeIS7_NS_3mapIS7_iNS_4lessIS7_EENS5_INS_4pairIKS7_iEEEEEEEESB_Lb1EEEEC1B7v160006IiRKSI_EEOT_OT0_, symObjAddr: 0x1DB0, symBinAddr: 0x100002F40, symSize: 0x30 }
  - { offsetInCU: 0xE448, offset: 0xE448, size: 0x8, addend: 0x0, symName: __ZNSt3__16__treeINS_12__value_typeINS_12basic_stringIcNS_11char_traitsIcEENS_9allocatorIcEEEENS_3mapIS7_iNS_4lessIS7_EENS5_INS_4pairIKS7_iEEEEEEEENS_19__map_value_compareIS7_SG_SA_Lb1EEENS5_ISG_EEE10__end_nodeB7v160006Ev, symObjAddr: 0x1DE0, symBinAddr: 0x100002F70, symSize: 0x30 }
  - { offsetInCU: 0xE46E, offset: 0xE46E, size: 0x8, addend: 0x0, symName: __ZNSt3__16__treeINS_12__value_typeINS_12basic_stringIcNS_11char_traitsIcEENS_9allocatorIcEEEENS_3mapIS7_iNS_4lessIS7_EENS5_INS_4pairIKS7_iEEEEEEEENS_19__map_value_compareIS7_SG_SA_Lb1EEENS5_ISG_EEE12__begin_nodeB7v160006Ev, symObjAddr: 0x1E10, symBinAddr: 0x100002FA0, symSize: 0x10 }
  - { offsetInCU: 0xE494, offset: 0xE494, size: 0x8, addend: 0x0, symName: __ZNSt3__117__compressed_pairINS_15__tree_end_nodeIPNS_16__tree_node_baseIPvEEEENS_9allocatorINS_11__tree_nodeINS_12__value_typeINS_12basic_stringIcNS_11char_traitsIcEENS7_IcEEEENS_3mapISE_iNS_4lessISE_EENS7_INS_4pairIKSE_iEEEEEEEES3_EEEEEC2B7v160006ILb1EvEEv, symObjAddr: 0x1E20, symBinAddr: 0x100002FB0, symSize: 0x30 }
  - { offsetInCU: 0xE4C9, offset: 0xE4C9, size: 0x8, addend: 0x0, symName: __ZNSt3__122__compressed_pair_elemINS_15__tree_end_nodeIPNS_16__tree_node_baseIPvEEEELi0ELb0EEC2B7v160006ENS_16__value_init_tagE, symObjAddr: 0x1E50, symBinAddr: 0x100002FE0, symSize: 0x20 }
  - { offsetInCU: 0xE4FE, offset: 0xE4FE, size: 0x8, addend: 0x0, symName: __ZNSt3__122__compressed_pair_elemINS_9allocatorINS_11__tree_nodeINS_12__value_typeINS_12basic_stringIcNS_11char_traitsIcEENS1_IcEEEENS_3mapIS8_iNS_4lessIS8_EENS1_INS_4pairIKS8_iEEEEEEEEPvEEEELi1ELb1EEC2B7v160006ENS_16__value_init_tagE, symObjAddr: 0x1E70, symBinAddr: 0x100003000, symSize: 0x20 }
  - { offsetInCU: 0xE533, offset: 0xE533, size: 0x8, addend: 0x0, symName: __ZNSt3__115__tree_end_nodeIPNS_16__tree_node_baseIPvEEEC1B7v160006Ev, symObjAddr: 0x1E90, symBinAddr: 0x100003020, symSize: 0x20 }
  - { offsetInCU: 0xE55D, offset: 0xE55D, size: 0x8, addend: 0x0, symName: __ZNSt3__115__tree_end_nodeIPNS_16__tree_node_baseIPvEEEC2B7v160006Ev, symObjAddr: 0x1EB0, symBinAddr: 0x100003040, symSize: 0x20 }
  - { offsetInCU: 0xE587, offset: 0xE587, size: 0x8, addend: 0x0, symName: __ZNSt3__19allocatorINS_11__tree_nodeINS_12__value_typeINS_12basic_stringIcNS_11char_traitsIcEENS0_IcEEEENS_3mapIS7_iNS_4lessIS7_EENS0_INS_4pairIKS7_iEEEEEEEEPvEEEC2B7v160006Ev, symObjAddr: 0x1ED0, symBinAddr: 0x100003060, symSize: 0x20 }
  - { offsetInCU: 0xE5B1, offset: 0xE5B1, size: 0x8, addend: 0x0, symName: __ZNSt3__116__non_trivial_ifILb1ENS_9allocatorINS_11__tree_nodeINS_12__value_typeINS_12basic_stringIcNS_11char_traitsIcEENS1_IcEEEENS_3mapIS8_iNS_4lessIS8_EENS1_INS_4pairIKS8_iEEEEEEEEPvEEEEEC2B7v160006Ev, symObjAddr: 0x1EF0, symBinAddr: 0x100003080, symSize: 0x10 }
  - { offsetInCU: 0xE5DB, offset: 0xE5DB, size: 0x8, addend: 0x0, symName: __ZNSt3__117__compressed_pairImNS_19__map_value_compareINS_12basic_stringIcNS_11char_traitsIcEENS_9allocatorIcEEEENS_12__value_typeIS7_NS_3mapIS7_iNS_4lessIS7_EENS5_INS_4pairIKS7_iEEEEEEEESB_Lb1EEEEC2B7v160006IiRKSI_EEOT_OT0_, symObjAddr: 0x1F00, symBinAddr: 0x100003090, symSize: 0x40 }
  - { offsetInCU: 0xE633, offset: 0xE633, size: 0x8, addend: 0x0, symName: __ZNSt3__122__compressed_pair_elemImLi0ELb0EEC2B7v160006IivEEOT_, symObjAddr: 0x1F40, symBinAddr: 0x1000030D0, symSize: 0x20 }
  - { offsetInCU: 0xE675, offset: 0xE675, size: 0x8, addend: 0x0, symName: __ZNSt3__122__compressed_pair_elemINS_19__map_value_compareINS_12basic_stringIcNS_11char_traitsIcEENS_9allocatorIcEEEENS_12__value_typeIS7_NS_3mapIS7_iNS_4lessIS7_EENS5_INS_4pairIKS7_iEEEEEEEESB_Lb1EEELi1ELb1EEC2B7v160006IRKSI_vEEOT_, symObjAddr: 0x1F60, symBinAddr: 0x1000030F0, symSize: 0x10 }
  - { offsetInCU: 0xE6B7, offset: 0xE6B7, size: 0x8, addend: 0x0, symName: __ZNSt3__114pointer_traitsIPNS_15__tree_end_nodeIPNS_16__tree_node_baseIPvEEEEE10pointer_toB7v160006ERS6_, symObjAddr: 0x1F70, symBinAddr: 0x100003100, symSize: 0x10 }
  - { offsetInCU: 0xE6DA, offset: 0xE6DA, size: 0x8, addend: 0x0, symName: __ZNSt3__117__compressed_pairINS_15__tree_end_nodeIPNS_16__tree_node_baseIPvEEEENS_9allocatorINS_11__tree_nodeINS_12__value_typeINS_12basic_stringIcNS_11char_traitsIcEENS7_IcEEEENS_3mapISE_iNS_4lessISE_EENS7_INS_4pairIKSE_iEEEEEEEES3_EEEEE5firstB7v160006Ev, symObjAddr: 0x1F80, symBinAddr: 0x100003110, symSize: 0x20 }
  - { offsetInCU: 0xE700, offset: 0xE700, size: 0x8, addend: 0x0, symName: __ZNSt3__122__compressed_pair_elemINS_15__tree_end_nodeIPNS_16__tree_node_baseIPvEEEELi0ELb0EE5__getB7v160006Ev, symObjAddr: 0x1FA0, symBinAddr: 0x100003130, symSize: 0x10 }
  - { offsetInCU: 0xE73A, offset: 0xE73A, size: 0x8, addend: 0x0, symName: __ZNSt3__16__treeINS_12__value_typeINS_12basic_stringIcNS_11char_traitsIcEENS_9allocatorIcEEEENS_3mapIS7_iNS_4lessIS7_EENS5_INS_4pairIKS7_iEEEEEEEENS_19__map_value_compareIS7_SG_SA_Lb1EEENS5_ISG_EEE25__emplace_unique_key_argsIS7_JRKNS_21piecewise_construct_tENS_5tupleIJRSC_EEENSP_IJEEEEEENSB_INS_15__tree_iteratorISG_PNS_11__tree_nodeISG_PvEElEEbEERKT_DpOT0_, symObjAddr: 0x1FB0, symBinAddr: 0x100003140, symSize: 0x100 }
  - { offsetInCU: 0xE819, offset: 0xE819, size: 0x8, addend: 0x0, symName: __ZNKSt3__115__tree_iteratorINS_12__value_typeINS_12basic_stringIcNS_11char_traitsIcEENS_9allocatorIcEEEENS_3mapIS7_iNS_4lessIS7_EENS5_INS_4pairIKS7_iEEEEEEEEPNS_11__tree_nodeISG_PvEElEptB7v160006Ev, symObjAddr: 0x20F0, symBinAddr: 0x100003280, symSize: 0x30 }
  - { offsetInCU: 0xE83F, offset: 0xE83F, size: 0x8, addend: 0x0, symName: __ZNSt3__112__value_typeINS_12basic_stringIcNS_11char_traitsIcEENS_9allocatorIcEEEENS_3mapIS6_iNS_4lessIS6_EENS4_INS_4pairIKS6_iEEEEEEE11__get_valueB7v160006Ev, symObjAddr: 0x2120, symBinAddr: 0x1000032B0, symSize: 0x10 }
  - { offsetInCU: 0xE865, offset: 0xE865, size: 0x8, addend: 0x0, symName: __ZNSt3__16__treeINS_12__value_typeINS_12basic_stringIcNS_11char_traitsIcEENS_9allocatorIcEEEENS_3mapIS7_iNS_4lessIS7_EENS5_INS_4pairIKS7_iEEEEEEEENS_19__map_value_compareIS7_SG_SA_Lb1EEENS5_ISG_EEE12__find_equalIS7_EERPNS_16__tree_node_baseIPvEERPNS_15__tree_end_nodeISP_EERKT_, symObjAddr: 0x2130, symBinAddr: 0x1000032C0, symSize: 0x180 }
  - { offsetInCU: 0xE8D2, offset: 0xE8D2, size: 0x8, addend: 0x0, symName: __ZNSt3__16__treeINS_12__value_typeINS_12basic_stringIcNS_11char_traitsIcEENS_9allocatorIcEEEENS_3mapIS7_iNS_4lessIS7_EENS5_INS_4pairIKS7_iEEEEEEEENS_19__map_value_compareIS7_SG_SA_Lb1EEENS5_ISG_EEE16__construct_nodeIJRKNS_21piecewise_construct_tENS_5tupleIJRSC_EEENSP_IJEEEEEENS_10unique_ptrINS_11__tree_nodeISG_PvEENS_22__tree_node_destructorINS5_ISW_EEEEEEDpOT_, symObjAddr: 0x22B0, symBinAddr: 0x100003440, symSize: 0x120 }
  - { offsetInCU: 0xE95B, offset: 0xE95B, size: 0x8, addend: 0x0, symName: __ZNSt3__16__treeINS_12__value_typeINS_12basic_stringIcNS_11char_traitsIcEENS_9allocatorIcEEEENS_3mapIS7_iNS_4lessIS7_EENS5_INS_4pairIKS7_iEEEEEEEENS_19__map_value_compareIS7_SG_SA_Lb1EEENS5_ISG_EEE16__insert_node_atEPNS_15__tree_end_nodeIPNS_16__tree_node_baseIPvEEEERSP_SP_, symObjAddr: 0x23D0, symBinAddr: 0x100003560, symSize: 0xC0 }
  - { offsetInCU: 0xE9B0, offset: 0xE9B0, size: 0x8, addend: 0x0, symName: __ZNKSt3__110unique_ptrINS_11__tree_nodeINS_12__value_typeINS_12basic_stringIcNS_11char_traitsIcEENS_9allocatorIcEEEENS_3mapIS8_iNS_4lessIS8_EENS6_INS_4pairIKS8_iEEEEEEEEPvEENS_22__tree_node_destructorINS6_ISJ_EEEEE3getB7v160006Ev, symObjAddr: 0x2490, symBinAddr: 0x100003620, symSize: 0x20 }
  - { offsetInCU: 0xE9D6, offset: 0xE9D6, size: 0x8, addend: 0x0, symName: __ZNSt3__110unique_ptrINS_11__tree_nodeINS_12__value_typeINS_12basic_stringIcNS_11char_traitsIcEENS_9allocatorIcEEEENS_3mapIS8_iNS_4lessIS8_EENS6_INS_4pairIKS8_iEEEEEEEEPvEENS_22__tree_node_destructorINS6_ISJ_EEEEE7releaseB7v160006Ev, symObjAddr: 0x24B0, symBinAddr: 0x100003640, symSize: 0x40 }
  - { offsetInCU: 0xEA0B, offset: 0xEA0B, size: 0x8, addend: 0x0, symName: __ZNSt3__110unique_ptrINS_11__tree_nodeINS_12__value_typeINS_12basic_stringIcNS_11char_traitsIcEENS_9allocatorIcEEEENS_3mapIS8_iNS_4lessIS8_EENS6_INS_4pairIKS8_iEEEEEEEEPvEENS_22__tree_node_destructorINS6_ISJ_EEEEED1B7v160006Ev, symObjAddr: 0x24F0, symBinAddr: 0x100003680, symSize: 0x20 }
  - { offsetInCU: 0xEA35, offset: 0xEA35, size: 0x8, addend: 0x0, symName: __ZNSt3__115__tree_iteratorINS_12__value_typeINS_12basic_stringIcNS_11char_traitsIcEENS_9allocatorIcEEEENS_3mapIS7_iNS_4lessIS7_EENS5_INS_4pairIKS7_iEEEEEEEEPNS_11__tree_nodeISG_PvEElEC1B7v160006ESK_, symObjAddr: 0x2510, symBinAddr: 0x1000036A0, symSize: 0x30 }
  - { offsetInCU: 0xEA78, offset: 0xEA78, size: 0x8, addend: 0x0, symName: __ZNSt3__14pairINS_15__tree_iteratorINS_12__value_typeINS_12basic_stringIcNS_11char_traitsIcEENS_9allocatorIcEEEENS_3mapIS8_iNS_4lessIS8_EENS6_INS0_IKS8_iEEEEEEEEPNS_11__tree_nodeISG_PvEElEEbEC1B7v160006ISL_RbLSI_0EEEOT_OT0_, symObjAddr: 0x2540, symBinAddr: 0x1000036D0, symSize: 0x30 }
  - { offsetInCU: 0xEAD6, offset: 0xEAD6, size: 0x8, addend: 0x0, symName: __ZNKSt3__16__treeINS_12__value_typeINS_12basic_stringIcNS_11char_traitsIcEENS_9allocatorIcEEEENS_3mapIS7_iNS_4lessIS7_EENS5_INS_4pairIKS7_iEEEEEEEENS_19__map_value_compareIS7_SG_SA_Lb1EEENS5_ISG_EEE6__rootB7v160006Ev, symObjAddr: 0x2570, symBinAddr: 0x100003700, symSize: 0x20 }
  - { offsetInCU: 0xEAFC, offset: 0xEAFC, size: 0x8, addend: 0x0, symName: __ZNKSt3__16__treeINS_12__value_typeINS_12basic_stringIcNS_11char_traitsIcEENS_9allocatorIcEEEENS_3mapIS7_iNS_4lessIS7_EENS5_INS_4pairIKS7_iEEEEEEEENS_19__map_value_compareIS7_SG_SA_Lb1EEENS5_ISG_EEE10__root_ptrEv, symObjAddr: 0x2590, symBinAddr: 0x100003720, symSize: 0x20 }
  - { offsetInCU: 0xEB22, offset: 0xEB22, size: 0x8, addend: 0x0, symName: __ZNSt3__16__treeINS_12__value_typeINS_12basic_stringIcNS_11char_traitsIcEENS_9allocatorIcEEEENS_3mapIS7_iNS_4lessIS7_EENS5_INS_4pairIKS7_iEEEEEEEENS_19__map_value_compareIS7_SG_SA_Lb1EEENS5_ISG_EEE10value_compB7v160006Ev, symObjAddr: 0x25B0, symBinAddr: 0x100003740, symSize: 0x20 }
  - { offsetInCU: 0xEB48, offset: 0xEB48, size: 0x8, addend: 0x0, symName: __ZNKSt3__119__map_value_compareINS_12basic_stringIcNS_11char_traitsIcEENS_9allocatorIcEEEENS_12__value_typeIS6_NS_3mapIS6_iNS_4lessIS6_EENS4_INS_4pairIKS6_iEEEEEEEESA_Lb1EEclB7v160006ERSC_RKSG_, symObjAddr: 0x25D0, symBinAddr: 0x100003760, symSize: 0x50 }
  - { offsetInCU: 0xEB8C, offset: 0xEB8C, size: 0x8, addend: 0x0, symName: __ZNKSt3__119__map_value_compareINS_12basic_stringIcNS_11char_traitsIcEENS_9allocatorIcEEEENS_12__value_typeIS6_NS_3mapIS6_iNS_4lessIS6_EENS4_INS_4pairIKS6_iEEEEEEEESA_Lb1EEclB7v160006ERKSG_RSC_, symObjAddr: 0x2620, symBinAddr: 0x1000037B0, symSize: 0x40 }
  - { offsetInCU: 0xEBD0, offset: 0xEBD0, size: 0x8, addend: 0x0, symName: __ZNKSt3__16__treeINS_12__value_typeINS_12basic_stringIcNS_11char_traitsIcEENS_9allocatorIcEEEENS_3mapIS7_iNS_4lessIS7_EENS5_INS_4pairIKS7_iEEEEEEEENS_19__map_value_compareIS7_SG_SA_Lb1EEENS5_ISG_EEE10__end_nodeB7v160006Ev, symObjAddr: 0x2660, symBinAddr: 0x1000037F0, symSize: 0x30 }
  - { offsetInCU: 0xEBF6, offset: 0xEBF6, size: 0x8, addend: 0x0, symName: __ZNKSt3__117__compressed_pairINS_15__tree_end_nodeIPNS_16__tree_node_baseIPvEEEENS_9allocatorINS_11__tree_nodeINS_12__value_typeINS_12basic_stringIcNS_11char_traitsIcEENS7_IcEEEENS_3mapISE_iNS_4lessISE_EENS7_INS_4pairIKSE_iEEEEEEEES3_EEEEE5firstB7v160006Ev, symObjAddr: 0x2690, symBinAddr: 0x100003820, symSize: 0x20 }
  - { offsetInCU: 0xEC1C, offset: 0xEC1C, size: 0x8, addend: 0x0, symName: __ZNKSt3__122__compressed_pair_elemINS_15__tree_end_nodeIPNS_16__tree_node_baseIPvEEEELi0ELb0EE5__getB7v160006Ev, symObjAddr: 0x26B0, symBinAddr: 0x100003840, symSize: 0x10 }
  - { offsetInCU: 0xEC42, offset: 0xEC42, size: 0x8, addend: 0x0, symName: __ZNSt3__117__compressed_pairImNS_19__map_value_compareINS_12basic_stringIcNS_11char_traitsIcEENS_9allocatorIcEEEENS_12__value_typeIS7_NS_3mapIS7_iNS_4lessIS7_EENS5_INS_4pairIKS7_iEEEEEEEESB_Lb1EEEE6secondB7v160006Ev, symObjAddr: 0x26C0, symBinAddr: 0x100003850, symSize: 0x20 }
  - { offsetInCU: 0xEC68, offset: 0xEC68, size: 0x8, addend: 0x0, symName: __ZNSt3__122__compressed_pair_elemINS_19__map_value_compareINS_12basic_stringIcNS_11char_traitsIcEENS_9allocatorIcEEEENS_12__value_typeIS7_NS_3mapIS7_iNS_4lessIS7_EENS5_INS_4pairIKS7_iEEEEEEEESB_Lb1EEELi1ELb1EE5__getB7v160006Ev, symObjAddr: 0x26E0, symBinAddr: 0x100003870, symSize: 0x10 }
  - { offsetInCU: 0xEC8E, offset: 0xEC8E, size: 0x8, addend: 0x0, symName: __ZNKSt3__14lessINS_12basic_stringIcNS_11char_traitsIcEENS_9allocatorIcEEEEEclB7v160006ERKS6_S9_, symObjAddr: 0x26F0, symBinAddr: 0x100003880, symSize: 0x30 }
  - { offsetInCU: 0xECD2, offset: 0xECD2, size: 0x8, addend: 0x0, symName: __ZNKSt3__112__value_typeINS_12basic_stringIcNS_11char_traitsIcEENS_9allocatorIcEEEENS_3mapIS6_iNS_4lessIS6_EENS4_INS_4pairIKS6_iEEEEEEE11__get_valueB7v160006Ev, symObjAddr: 0x2720, symBinAddr: 0x1000038B0, symSize: 0x10 }
  - { offsetInCU: 0xECF8, offset: 0xECF8, size: 0x8, addend: 0x0, symName: __ZNKSt3__112basic_stringIcNS_11char_traitsIcEENS_9allocatorIcEEE7compareB7v160006ERKS5_, symObjAddr: 0x2760, symBinAddr: 0x1000038F0, symSize: 0x40 }
  - { offsetInCU: 0xED2F, offset: 0xED2F, size: 0x8, addend: 0x0, symName: __ZNKSt3__112basic_stringIcNS_11char_traitsIcEENS_9allocatorIcEEE7compareINS_17basic_string_viewIcS2_EEEENS_9enable_ifIXsr33__can_be_converted_to_string_viewIcS2_T_EE5valueEiE4typeERKSA_, symObjAddr: 0x27A0, symBinAddr: 0x100003930, symSize: 0xF0 }
  - { offsetInCU: 0xEDAC, offset: 0xEDAC, size: 0x8, addend: 0x0, symName: __ZNKSt3__112basic_stringIcNS_11char_traitsIcEENS_9allocatorIcEEEcvNS_17basic_string_viewIcS2_EEB7v160006Ev, symObjAddr: 0x2890, symBinAddr: 0x100003A20, symSize: 0x50 }
  - { offsetInCU: 0xEDD2, offset: 0xEDD2, size: 0x8, addend: 0x0, symName: __ZNKSt3__112basic_stringIcNS_11char_traitsIcEENS_9allocatorIcEEE4sizeB7v160006Ev, symObjAddr: 0x28E0, symBinAddr: 0x100003A70, symSize: 0x50 }
  - { offsetInCU: 0xEDF8, offset: 0xEDF8, size: 0x8, addend: 0x0, symName: __ZNKSt3__117basic_string_viewIcNS_11char_traitsIcEEE4sizeB7v160006Ev, symObjAddr: 0x2930, symBinAddr: 0x100003AC0, symSize: 0x20 }
  - { offsetInCU: 0xEE1E, offset: 0xEE1E, size: 0x8, addend: 0x0, symName: __ZNSt3__111char_traitsIcE7compareEPKcS3_m, symObjAddr: 0x2950, symBinAddr: 0x100003AE0, symSize: 0x60 }
  - { offsetInCU: 0xEE5D, offset: 0xEE5D, size: 0x8, addend: 0x0, symName: __ZNKSt3__112basic_stringIcNS_11char_traitsIcEENS_9allocatorIcEEE4dataB7v160006Ev, symObjAddr: 0x29B0, symBinAddr: 0x100003B40, symSize: 0x30 }
  - { offsetInCU: 0xEE83, offset: 0xEE83, size: 0x8, addend: 0x0, symName: __ZNKSt3__117basic_string_viewIcNS_11char_traitsIcEEE4dataB7v160006Ev, symObjAddr: 0x29E0, symBinAddr: 0x100003B70, symSize: 0x20 }
  - { offsetInCU: 0xEEA9, offset: 0xEEA9, size: 0x8, addend: 0x0, symName: __ZNKSt3__112basic_stringIcNS_11char_traitsIcEENS_9allocatorIcEEE9__is_longB7v160006Ev, symObjAddr: 0x2A30, symBinAddr: 0x100003BC0, symSize: 0x30 }
  - { offsetInCU: 0xEECF, offset: 0xEECF, size: 0x8, addend: 0x0, symName: __ZNKSt3__112basic_stringIcNS_11char_traitsIcEENS_9allocatorIcEEE15__get_long_sizeB7v160006Ev, symObjAddr: 0x2A60, symBinAddr: 0x100003BF0, symSize: 0x20 }
  - { offsetInCU: 0xEEF5, offset: 0xEEF5, size: 0x8, addend: 0x0, symName: __ZNKSt3__112basic_stringIcNS_11char_traitsIcEENS_9allocatorIcEEE16__get_short_sizeB7v160006Ev, symObjAddr: 0x2A80, symBinAddr: 0x100003C10, symSize: 0x30 }
  - { offsetInCU: 0xEF1B, offset: 0xEF1B, size: 0x8, addend: 0x0, symName: __ZNKSt3__117__compressed_pairINS_12basic_stringIcNS_11char_traitsIcEENS_9allocatorIcEEE5__repES5_E5firstB7v160006Ev, symObjAddr: 0x2AB0, symBinAddr: 0x100003C40, symSize: 0x20 }
  - { offsetInCU: 0xEF41, offset: 0xEF41, size: 0x8, addend: 0x0, symName: __ZNKSt3__122__compressed_pair_elemINS_12basic_stringIcNS_11char_traitsIcEENS_9allocatorIcEEE5__repELi0ELb0EE5__getB7v160006Ev, symObjAddr: 0x2AD0, symBinAddr: 0x100003C60, symSize: 0x10 }
  - { offsetInCU: 0xEF67, offset: 0xEF67, size: 0x8, addend: 0x0, symName: __ZNKSt3__112basic_stringIcNS_11char_traitsIcEENS_9allocatorIcEEE13__get_pointerB7v160006Ev, symObjAddr: 0x2B20, symBinAddr: 0x100003CB0, symSize: 0x50 }
  - { offsetInCU: 0xEF8D, offset: 0xEF8D, size: 0x8, addend: 0x0, symName: __ZNKSt3__112basic_stringIcNS_11char_traitsIcEENS_9allocatorIcEEE18__get_long_pointerB7v160006Ev, symObjAddr: 0x2B70, symBinAddr: 0x100003D00, symSize: 0x20 }
  - { offsetInCU: 0xEFB3, offset: 0xEFB3, size: 0x8, addend: 0x0, symName: __ZNKSt3__112basic_stringIcNS_11char_traitsIcEENS_9allocatorIcEEE19__get_short_pointerB7v160006Ev, symObjAddr: 0x2B90, symBinAddr: 0x100003D20, symSize: 0x30 }
  - { offsetInCU: 0xEFD9, offset: 0xEFD9, size: 0x8, addend: 0x0, symName: __ZNSt3__114pointer_traitsIPKcE10pointer_toB7v160006ERS1_, symObjAddr: 0x2BC0, symBinAddr: 0x100003D50, symSize: 0x10 }
  - { offsetInCU: 0xF006, offset: 0xF006, size: 0x8, addend: 0x0, symName: __ZNKSt3__16__lessImmEclB7v160006ERKmS3_, symObjAddr: 0x2C20, symBinAddr: 0x100003DB0, symSize: 0x30 }
  - { offsetInCU: 0xF048, offset: 0xF048, size: 0x8, addend: 0x0, symName: __ZNSt3__117basic_string_viewIcNS_11char_traitsIcEEEC1B7v160006EPKcm, symObjAddr: 0x2C50, symBinAddr: 0x100003DE0, symSize: 0x30 }
  - { offsetInCU: 0xF090, offset: 0xF090, size: 0x8, addend: 0x0, symName: __ZNSt3__117basic_string_viewIcNS_11char_traitsIcEEEC2B7v160006EPKcm, symObjAddr: 0x2C80, symBinAddr: 0x100003E10, symSize: 0x50 }
  - { offsetInCU: 0xF0D8, offset: 0xF0D8, size: 0x8, addend: 0x0, symName: __ZNSt3__16__treeINS_12__value_typeINS_12basic_stringIcNS_11char_traitsIcEENS_9allocatorIcEEEENS_3mapIS7_iNS_4lessIS7_EENS5_INS_4pairIKS7_iEEEEEEEENS_19__map_value_compareIS7_SG_SA_Lb1EEENS5_ISG_EEE12__node_allocB7v160006Ev, symObjAddr: 0x2CD0, symBinAddr: 0x100003E60, symSize: 0x20 }
  - { offsetInCU: 0xF0FE, offset: 0xF0FE, size: 0x8, addend: 0x0, symName: __ZNSt3__116allocator_traitsINS_9allocatorINS_11__tree_nodeINS_12__value_typeINS_12basic_stringIcNS_11char_traitsIcEENS1_IcEEEENS_3mapIS8_iNS_4lessIS8_EENS1_INS_4pairIKS8_iEEEEEEEEPvEEEEE8allocateB7v160006ERSK_m, symObjAddr: 0x2CF0, symBinAddr: 0x100003E80, symSize: 0x30 }
  - { offsetInCU: 0xF131, offset: 0xF131, size: 0x8, addend: 0x0, symName: __ZNSt3__122__tree_node_destructorINS_9allocatorINS_11__tree_nodeINS_12__value_typeINS_12basic_stringIcNS_11char_traitsIcEENS1_IcEEEENS_3mapIS8_iNS_4lessIS8_EENS1_INS_4pairIKS8_iEEEEEEEEPvEEEEEC1B7v160006ERSK_b, symObjAddr: 0x2D20, symBinAddr: 0x100003EB0, symSize: 0x40 }
  - { offsetInCU: 0xF17E, offset: 0xF17E, size: 0x8, addend: 0x0, symName: __ZNSt3__110unique_ptrINS_11__tree_nodeINS_12__value_typeINS_12basic_stringIcNS_11char_traitsIcEENS_9allocatorIcEEEENS_3mapIS8_iNS_4lessIS8_EENS6_INS_4pairIKS8_iEEEEEEEEPvEENS_22__tree_node_destructorINS6_ISJ_EEEEEC1B7v160006ILb1EvEEPSJ_NS_16__dependent_typeINS_27__unique_ptr_deleter_sfinaeISM_EEXT_EE20__good_rval_ref_typeE, symObjAddr: 0x2D60, symBinAddr: 0x100003EF0, symSize: 0x30 }
  - { offsetInCU: 0xF1CF, offset: 0xF1CF, size: 0x8, addend: 0x0, symName: __ZNSt3__116allocator_traitsINS_9allocatorINS_11__tree_nodeINS_12__value_typeINS_12basic_stringIcNS_11char_traitsIcEENS1_IcEEEENS_3mapIS8_iNS_4lessIS8_EENS1_INS_4pairIKS8_iEEEEEEEEPvEEEEE9constructB7v160006INSC_ISD_SG_EEJRKNS_21piecewise_construct_tENS_5tupleIJRSD_EEENSR_IJEEEEvEEvRSK_PT_DpOT0_, symObjAddr: 0x2D90, symBinAddr: 0x100003F20, symSize: 0x40 }
  - { offsetInCU: 0xF24E, offset: 0xF24E, size: 0x8, addend: 0x0, symName: __ZNSt3__122__tree_key_value_typesINS_12__value_typeINS_12basic_stringIcNS_11char_traitsIcEENS_9allocatorIcEEEENS_3mapIS7_iNS_4lessIS7_EENS5_INS_4pairIKS7_iEEEEEEEEE9__get_ptrB7v160006ERSG_, symObjAddr: 0x2DD0, symBinAddr: 0x100003F60, symSize: 0x20 }
  - { offsetInCU: 0xF272, offset: 0xF272, size: 0x8, addend: 0x0, symName: __ZNKSt3__110unique_ptrINS_11__tree_nodeINS_12__value_typeINS_12basic_stringIcNS_11char_traitsIcEENS_9allocatorIcEEEENS_3mapIS8_iNS_4lessIS8_EENS6_INS_4pairIKS8_iEEEEEEEEPvEENS_22__tree_node_destructorINS6_ISJ_EEEEEptB7v160006Ev, symObjAddr: 0x2DF0, symBinAddr: 0x100003F80, symSize: 0x20 }
  - { offsetInCU: 0xF298, offset: 0xF298, size: 0x8, addend: 0x0, symName: __ZNSt3__110unique_ptrINS_11__tree_nodeINS_12__value_typeINS_12basic_stringIcNS_11char_traitsIcEENS_9allocatorIcEEEENS_3mapIS8_iNS_4lessIS8_EENS6_INS_4pairIKS8_iEEEEEEEEPvEENS_22__tree_node_destructorINS6_ISJ_EEEEE11get_deleterB7v160006Ev, symObjAddr: 0x2E10, symBinAddr: 0x100003FA0, symSize: 0x20 }
  - { offsetInCU: 0xF2BE, offset: 0xF2BE, size: 0x8, addend: 0x0, symName: __ZNSt3__117__compressed_pairINS_15__tree_end_nodeIPNS_16__tree_node_baseIPvEEEENS_9allocatorINS_11__tree_nodeINS_12__value_typeINS_12basic_stringIcNS_11char_traitsIcEENS7_IcEEEENS_3mapISE_iNS_4lessISE_EENS7_INS_4pairIKSE_iEEEEEEEES3_EEEEE6secondB7v160006Ev, symObjAddr: 0x2E30, symBinAddr: 0x100003FC0, symSize: 0x20 }
  - { offsetInCU: 0xF2E4, offset: 0xF2E4, size: 0x8, addend: 0x0, symName: __ZNSt3__122__compressed_pair_elemINS_9allocatorINS_11__tree_nodeINS_12__value_typeINS_12basic_stringIcNS_11char_traitsIcEENS1_IcEEEENS_3mapIS8_iNS_4lessIS8_EENS1_INS_4pairIKS8_iEEEEEEEEPvEEEELi1ELb1EE5__getB7v160006Ev, symObjAddr: 0x2E50, symBinAddr: 0x100003FE0, symSize: 0x10 }
  - { offsetInCU: 0xF30A, offset: 0xF30A, size: 0x8, addend: 0x0, symName: __ZNSt3__19allocatorINS_11__tree_nodeINS_12__value_typeINS_12basic_stringIcNS_11char_traitsIcEENS0_IcEEEENS_3mapIS7_iNS_4lessIS7_EENS0_INS_4pairIKS7_iEEEEEEEEPvEEE8allocateB7v160006Em, symObjAddr: 0x2E60, symBinAddr: 0x100003FF0, symSize: 0x50 }
  - { offsetInCU: 0xF348, offset: 0xF348, size: 0x8, addend: 0x0, symName: __ZNSt3__116allocator_traitsINS_9allocatorINS_11__tree_nodeINS_12__value_typeINS_12basic_stringIcNS_11char_traitsIcEENS1_IcEEEENS_3mapIS8_iNS_4lessIS8_EENS1_INS_4pairIKS8_iEEEEEEEEPvEEEEE8max_sizeB7v160006ISK_vEEmRKSK_, symObjAddr: 0x2EB0, symBinAddr: 0x100004040, symSize: 0x20 }
  - { offsetInCU: 0xF376, offset: 0xF376, size: 0x8, addend: 0x0, symName: __ZNKSt3__19allocatorINS_11__tree_nodeINS_12__value_typeINS_12basic_stringIcNS_11char_traitsIcEENS0_IcEEEENS_3mapIS7_iNS_4lessIS7_EENS0_INS_4pairIKS7_iEEEEEEEEPvEEE8max_sizeB7v160006Ev, symObjAddr: 0x2F30, symBinAddr: 0x1000040C0, symSize: 0x20 }
  - { offsetInCU: 0xF39C, offset: 0xF39C, size: 0x8, addend: 0x0, symName: __ZNSt3__122__tree_node_destructorINS_9allocatorINS_11__tree_nodeINS_12__value_typeINS_12basic_stringIcNS_11char_traitsIcEENS1_IcEEEENS_3mapIS8_iNS_4lessIS8_EENS1_INS_4pairIKS8_iEEEEEEEEPvEEEEEC2B7v160006ERSK_b, symObjAddr: 0x2F70, symBinAddr: 0x100004100, symSize: 0x30 }
  - { offsetInCU: 0xF3E4, offset: 0xF3E4, size: 0x8, addend: 0x0, symName: __ZNSt3__110unique_ptrINS_11__tree_nodeINS_12__value_typeINS_12basic_stringIcNS_11char_traitsIcEENS_9allocatorIcEEEENS_3mapIS8_iNS_4lessIS8_EENS6_INS_4pairIKS8_iEEEEEEEEPvEENS_22__tree_node_destructorINS6_ISJ_EEEEEC2B7v160006ILb1EvEEPSJ_NS_16__dependent_typeINS_27__unique_ptr_deleter_sfinaeISM_EEXT_EE20__good_rval_ref_typeE, symObjAddr: 0x2FA0, symBinAddr: 0x100004130, symSize: 0x40 }
  - { offsetInCU: 0xF435, offset: 0xF435, size: 0x8, addend: 0x0, symName: __ZNSt3__117__compressed_pairIPNS_11__tree_nodeINS_12__value_typeINS_12basic_stringIcNS_11char_traitsIcEENS_9allocatorIcEEEENS_3mapIS8_iNS_4lessIS8_EENS6_INS_4pairIKS8_iEEEEEEEEPvEENS_22__tree_node_destructorINS6_ISJ_EEEEEC1B7v160006IRSK_SN_EEOT_OT0_, symObjAddr: 0x2FE0, symBinAddr: 0x100004170, symSize: 0x30 }
  - { offsetInCU: 0xF48D, offset: 0xF48D, size: 0x8, addend: 0x0, symName: __ZNSt3__117__compressed_pairIPNS_11__tree_nodeINS_12__value_typeINS_12basic_stringIcNS_11char_traitsIcEENS_9allocatorIcEEEENS_3mapIS8_iNS_4lessIS8_EENS6_INS_4pairIKS8_iEEEEEEEEPvEENS_22__tree_node_destructorINS6_ISJ_EEEEEC2B7v160006IRSK_SN_EEOT_OT0_, symObjAddr: 0x3010, symBinAddr: 0x1000041A0, symSize: 0x40 }
  - { offsetInCU: 0xF4E5, offset: 0xF4E5, size: 0x8, addend: 0x0, symName: __ZNSt3__122__compressed_pair_elemIPNS_11__tree_nodeINS_12__value_typeINS_12basic_stringIcNS_11char_traitsIcEENS_9allocatorIcEEEENS_3mapIS8_iNS_4lessIS8_EENS6_INS_4pairIKS8_iEEEEEEEEPvEELi0ELb0EEC2B7v160006IRSK_vEEOT_, symObjAddr: 0x3050, symBinAddr: 0x1000041E0, symSize: 0x20 }
  - { offsetInCU: 0xF527, offset: 0xF527, size: 0x8, addend: 0x0, symName: __ZNSt3__122__compressed_pair_elemINS_22__tree_node_destructorINS_9allocatorINS_11__tree_nodeINS_12__value_typeINS_12basic_stringIcNS_11char_traitsIcEENS2_IcEEEENS_3mapIS9_iNS_4lessIS9_EENS2_INS_4pairIKS9_iEEEEEEEEPvEEEEEELi1ELb0EEC2B7v160006ISM_vEEOT_, symObjAddr: 0x3070, symBinAddr: 0x100004200, symSize: 0x30 }
  - { offsetInCU: 0xF569, offset: 0xF569, size: 0x8, addend: 0x0, symName: __ZNSt3__19allocatorINS_11__tree_nodeINS_12__value_typeINS_12basic_stringIcNS_11char_traitsIcEENS0_IcEEEENS_3mapIS7_iNS_4lessIS7_EENS0_INS_4pairIKS7_iEEEEEEEEPvEEE9constructB7v160006INSB_ISC_SF_EEJRKNS_21piecewise_construct_tENS_5tupleIJRSC_EEENSP_IJEEEEEEvPT_DpOT0_, symObjAddr: 0x30A0, symBinAddr: 0x100004230, symSize: 0x40 }
  - { offsetInCU: 0xF5E5, offset: 0xF5E5, size: 0x8, addend: 0x0, symName: __ZNSt3__14pairIKNS_12basic_stringIcNS_11char_traitsIcEENS_9allocatorIcEEEENS_3mapIS6_iNS_4lessIS6_EENS4_INS0_IS7_iEEEEEEEC1B7v160006IJRS7_EJEEENS_21piecewise_construct_tENS_5tupleIJDpT_EEENSI_IJDpT0_EEE, symObjAddr: 0x30E0, symBinAddr: 0x100004270, symSize: 0x30 }
  - { offsetInCU: 0xF64C, offset: 0xF64C, size: 0x8, addend: 0x0, symName: __ZNSt3__14pairIKNS_12basic_stringIcNS_11char_traitsIcEENS_9allocatorIcEEEENS_3mapIS6_iNS_4lessIS6_EENS4_INS0_IS7_iEEEEEEEC1B7v160006IJRS7_EJEJLm0EEJEEENS_21piecewise_construct_tERNS_5tupleIJDpT_EEERNSI_IJDpT0_EEENS_15__tuple_indicesIJXspT1_EEEENSR_IJXspT2_EEEE, symObjAddr: 0x3110, symBinAddr: 0x1000042A0, symSize: 0x30 }
  - { offsetInCU: 0xF6DC, offset: 0xF6DC, size: 0x8, addend: 0x0, symName: __ZNSt3__14pairIKNS_12basic_stringIcNS_11char_traitsIcEENS_9allocatorIcEEEENS_3mapIS6_iNS_4lessIS6_EENS4_INS0_IS7_iEEEEEEEC2B7v160006IJRS7_EJEJLm0EEJEEENS_21piecewise_construct_tERNS_5tupleIJDpT_EEERNSI_IJDpT0_EEENS_15__tuple_indicesIJXspT1_EEEENSR_IJXspT2_EEEE, symObjAddr: 0x3140, symBinAddr: 0x1000042D0, symSize: 0x50 }
  - { offsetInCU: 0xF76C, offset: 0xF76C, size: 0x8, addend: 0x0, symName: __ZNSt3__13mapINS_12basic_stringIcNS_11char_traitsIcEENS_9allocatorIcEEEEiNS_4lessIS6_EENS4_INS_4pairIKS6_iEEEEEC1B7v160006Ev, symObjAddr: 0x31B0, symBinAddr: 0x100004340, symSize: 0x20 }
  - { offsetInCU: 0xF796, offset: 0xF796, size: 0x8, addend: 0x0, symName: __ZNSt3__112__tuple_leafILm0ERKNS_12basic_stringIcNS_11char_traitsIcEENS_9allocatorIcEEEELb0EE3getB7v160006Ev, symObjAddr: 0x31D0, symBinAddr: 0x100004360, symSize: 0x20 }
  - { offsetInCU: 0xF7BC, offset: 0xF7BC, size: 0x8, addend: 0x0, symName: __ZNSt3__13mapINS_12basic_stringIcNS_11char_traitsIcEENS_9allocatorIcEEEEiNS_4lessIS6_EENS4_INS_4pairIKS6_iEEEEEC2B7v160006Ev, symObjAddr: 0x31F0, symBinAddr: 0x100004380, symSize: 0x30 }
  - { offsetInCU: 0xF7E6, offset: 0xF7E6, size: 0x8, addend: 0x0, symName: __ZNSt3__119__map_value_compareINS_12basic_stringIcNS_11char_traitsIcEENS_9allocatorIcEEEENS_12__value_typeIS6_iEENS_4lessIS6_EELb1EEC1B7v160006ESA_, symObjAddr: 0x3220, symBinAddr: 0x1000043B0, symSize: 0x20 }
  - { offsetInCU: 0xF81F, offset: 0xF81F, size: 0x8, addend: 0x0, symName: __ZNSt3__16__treeINS_12__value_typeINS_12basic_stringIcNS_11char_traitsIcEENS_9allocatorIcEEEEiEENS_19__map_value_compareIS7_S8_NS_4lessIS7_EELb1EEENS5_IS8_EEEC1ERKSC_, symObjAddr: 0x3240, symBinAddr: 0x1000043D0, symSize: 0x30 }
  - { offsetInCU: 0xF85A, offset: 0xF85A, size: 0x8, addend: 0x0, symName: __ZNSt3__119__map_value_compareINS_12basic_stringIcNS_11char_traitsIcEENS_9allocatorIcEEEENS_12__value_typeIS6_iEENS_4lessIS6_EELb1EEC2B7v160006ESA_, symObjAddr: 0x3270, symBinAddr: 0x100004400, symSize: 0x10 }
  - { offsetInCU: 0xF893, offset: 0xF893, size: 0x8, addend: 0x0, symName: __ZNSt3__16__treeINS_12__value_typeINS_12basic_stringIcNS_11char_traitsIcEENS_9allocatorIcEEEEiEENS_19__map_value_compareIS7_S8_NS_4lessIS7_EELb1EEENS5_IS8_EEEC2ERKSC_, symObjAddr: 0x3280, symBinAddr: 0x100004410, symSize: 0x80 }
  - { offsetInCU: 0xF8CE, offset: 0xF8CE, size: 0x8, addend: 0x0, symName: __ZNSt3__117__compressed_pairINS_15__tree_end_nodeIPNS_16__tree_node_baseIPvEEEENS_9allocatorINS_11__tree_nodeINS_12__value_typeINS_12basic_stringIcNS_11char_traitsIcEENS7_IcEEEEiEES3_EEEEEC1B7v160006ILb1EvEEv, symObjAddr: 0x3300, symBinAddr: 0x100004490, symSize: 0x20 }
  - { offsetInCU: 0xF903, offset: 0xF903, size: 0x8, addend: 0x0, symName: __ZNSt3__117__compressed_pairImNS_19__map_value_compareINS_12basic_stringIcNS_11char_traitsIcEENS_9allocatorIcEEEENS_12__value_typeIS7_iEENS_4lessIS7_EELb1EEEEC1B7v160006IiRKSC_EEOT_OT0_, symObjAddr: 0x3320, symBinAddr: 0x1000044B0, symSize: 0x30 }
  - { offsetInCU: 0xF95B, offset: 0xF95B, size: 0x8, addend: 0x0, symName: __ZNSt3__16__treeINS_12__value_typeINS_12basic_stringIcNS_11char_traitsIcEENS_9allocatorIcEEEEiEENS_19__map_value_compareIS7_S8_NS_4lessIS7_EELb1EEENS5_IS8_EEE10__end_nodeB7v160006Ev, symObjAddr: 0x3350, symBinAddr: 0x1000044E0, symSize: 0x30 }
  - { offsetInCU: 0xF981, offset: 0xF981, size: 0x8, addend: 0x0, symName: __ZNSt3__16__treeINS_12__value_typeINS_12basic_stringIcNS_11char_traitsIcEENS_9allocatorIcEEEEiEENS_19__map_value_compareIS7_S8_NS_4lessIS7_EELb1EEENS5_IS8_EEE12__begin_nodeB7v160006Ev, symObjAddr: 0x3380, symBinAddr: 0x100004510, symSize: 0x10 }
  - { offsetInCU: 0xF9A7, offset: 0xF9A7, size: 0x8, addend: 0x0, symName: __ZNSt3__117__compressed_pairINS_15__tree_end_nodeIPNS_16__tree_node_baseIPvEEEENS_9allocatorINS_11__tree_nodeINS_12__value_typeINS_12basic_stringIcNS_11char_traitsIcEENS7_IcEEEEiEES3_EEEEEC2B7v160006ILb1EvEEv, symObjAddr: 0x3390, symBinAddr: 0x100004520, symSize: 0x30 }
  - { offsetInCU: 0xF9DC, offset: 0xF9DC, size: 0x8, addend: 0x0, symName: __ZNSt3__122__compressed_pair_elemINS_9allocatorINS_11__tree_nodeINS_12__value_typeINS_12basic_stringIcNS_11char_traitsIcEENS1_IcEEEEiEEPvEEEELi1ELb1EEC2B7v160006ENS_16__value_init_tagE, symObjAddr: 0x33C0, symBinAddr: 0x100004550, symSize: 0x20 }
  - { offsetInCU: 0xFA11, offset: 0xFA11, size: 0x8, addend: 0x0, symName: __ZNSt3__19allocatorINS_11__tree_nodeINS_12__value_typeINS_12basic_stringIcNS_11char_traitsIcEENS0_IcEEEEiEEPvEEEC2B7v160006Ev, symObjAddr: 0x33E0, symBinAddr: 0x100004570, symSize: 0x20 }
  - { offsetInCU: 0xFA3B, offset: 0xFA3B, size: 0x8, addend: 0x0, symName: __ZNSt3__116__non_trivial_ifILb1ENS_9allocatorINS_11__tree_nodeINS_12__value_typeINS_12basic_stringIcNS_11char_traitsIcEENS1_IcEEEEiEEPvEEEEEC2B7v160006Ev, symObjAddr: 0x3400, symBinAddr: 0x100004590, symSize: 0x10 }
  - { offsetInCU: 0xFA65, offset: 0xFA65, size: 0x8, addend: 0x0, symName: __ZNSt3__117__compressed_pairImNS_19__map_value_compareINS_12basic_stringIcNS_11char_traitsIcEENS_9allocatorIcEEEENS_12__value_typeIS7_iEENS_4lessIS7_EELb1EEEEC2B7v160006IiRKSC_EEOT_OT0_, symObjAddr: 0x3410, symBinAddr: 0x1000045A0, symSize: 0x40 }
  - { offsetInCU: 0xFABD, offset: 0xFABD, size: 0x8, addend: 0x0, symName: __ZNSt3__122__compressed_pair_elemINS_19__map_value_compareINS_12basic_stringIcNS_11char_traitsIcEENS_9allocatorIcEEEENS_12__value_typeIS7_iEENS_4lessIS7_EELb1EEELi1ELb1EEC2B7v160006IRKSC_vEEOT_, symObjAddr: 0x3450, symBinAddr: 0x1000045E0, symSize: 0x10 }
  - { offsetInCU: 0xFAFF, offset: 0xFAFF, size: 0x8, addend: 0x0, symName: __ZNSt3__117__compressed_pairINS_15__tree_end_nodeIPNS_16__tree_node_baseIPvEEEENS_9allocatorINS_11__tree_nodeINS_12__value_typeINS_12basic_stringIcNS_11char_traitsIcEENS7_IcEEEEiEES3_EEEEE5firstB7v160006Ev, symObjAddr: 0x3460, symBinAddr: 0x1000045F0, symSize: 0x20 }
  - { offsetInCU: 0xFB25, offset: 0xFB25, size: 0x8, addend: 0x0, symName: __ZNKSt3__117__compressed_pairIPNS_11__tree_nodeINS_12__value_typeINS_12basic_stringIcNS_11char_traitsIcEENS_9allocatorIcEEEENS_3mapIS8_iNS_4lessIS8_EENS6_INS_4pairIKS8_iEEEEEEEEPvEENS_22__tree_node_destructorINS6_ISJ_EEEEE5firstB7v160006Ev, symObjAddr: 0x3480, symBinAddr: 0x100004610, symSize: 0x20 }
  - { offsetInCU: 0xFB4B, offset: 0xFB4B, size: 0x8, addend: 0x0, symName: __ZNKSt3__122__compressed_pair_elemIPNS_11__tree_nodeINS_12__value_typeINS_12basic_stringIcNS_11char_traitsIcEENS_9allocatorIcEEEENS_3mapIS8_iNS_4lessIS8_EENS6_INS_4pairIKS8_iEEEEEEEEPvEELi0ELb0EE5__getB7v160006Ev, symObjAddr: 0x34A0, symBinAddr: 0x100004630, symSize: 0x10 }
  - { offsetInCU: 0xFB71, offset: 0xFB71, size: 0x8, addend: 0x0, symName: __ZNSt3__117__compressed_pairIPNS_11__tree_nodeINS_12__value_typeINS_12basic_stringIcNS_11char_traitsIcEENS_9allocatorIcEEEENS_3mapIS8_iNS_4lessIS8_EENS6_INS_4pairIKS8_iEEEEEEEEPvEENS_22__tree_node_destructorINS6_ISJ_EEEEE6secondB7v160006Ev, symObjAddr: 0x34B0, symBinAddr: 0x100004640, symSize: 0x20 }
  - { offsetInCU: 0xFB97, offset: 0xFB97, size: 0x8, addend: 0x0, symName: __ZNSt3__122__compressed_pair_elemINS_22__tree_node_destructorINS_9allocatorINS_11__tree_nodeINS_12__value_typeINS_12basic_stringIcNS_11char_traitsIcEENS2_IcEEEENS_3mapIS9_iNS_4lessIS9_EENS2_INS_4pairIKS9_iEEEEEEEEPvEEEEEELi1ELb0EE5__getB7v160006Ev, symObjAddr: 0x34D0, symBinAddr: 0x100004660, symSize: 0x10 }
  - { offsetInCU: 0xFBBD, offset: 0xFBBD, size: 0x8, addend: 0x0, symName: __ZNSt3__16__treeINS_12__value_typeINS_12basic_stringIcNS_11char_traitsIcEENS_9allocatorIcEEEENS_3mapIS7_iNS_4lessIS7_EENS5_INS_4pairIKS7_iEEEEEEEENS_19__map_value_compareIS7_SG_SA_Lb1EEENS5_ISG_EEE4sizeB7v160006Ev, symObjAddr: 0x3800, symBinAddr: 0x100004990, symSize: 0x20 }
  - { offsetInCU: 0xFBE3, offset: 0xFBE3, size: 0x8, addend: 0x0, symName: __ZNKSt3__116__tree_node_baseIPvE15__parent_unsafeB7v160006Ev, symObjAddr: 0x3820, symBinAddr: 0x1000049B0, symSize: 0x20 }
  - { offsetInCU: 0xFC09, offset: 0xFC09, size: 0x8, addend: 0x0, symName: __ZNSt3__116__tree_node_baseIPvE12__set_parentB7v160006EPS2_, symObjAddr: 0x3A00, symBinAddr: 0x100004B90, symSize: 0x20 }
  - { offsetInCU: 0xFC3E, offset: 0xFC3E, size: 0x8, addend: 0x0, symName: __ZNSt3__117__compressed_pairImNS_19__map_value_compareINS_12basic_stringIcNS_11char_traitsIcEENS_9allocatorIcEEEENS_12__value_typeIS7_NS_3mapIS7_iNS_4lessIS7_EENS5_INS_4pairIKS7_iEEEEEEEESB_Lb1EEEE5firstB7v160006Ev, symObjAddr: 0x3A20, symBinAddr: 0x100004BB0, symSize: 0x20 }
  - { offsetInCU: 0xFC64, offset: 0xFC64, size: 0x8, addend: 0x0, symName: __ZNSt3__122__compressed_pair_elemImLi0ELb0EE5__getB7v160006Ev, symObjAddr: 0x3A40, symBinAddr: 0x100004BD0, symSize: 0x10 }
  - { offsetInCU: 0xFC8A, offset: 0xFC8A, size: 0x8, addend: 0x0, symName: __ZNSt3__117__compressed_pairIPNS_11__tree_nodeINS_12__value_typeINS_12basic_stringIcNS_11char_traitsIcEENS_9allocatorIcEEEENS_3mapIS8_iNS_4lessIS8_EENS6_INS_4pairIKS8_iEEEEEEEEPvEENS_22__tree_node_destructorINS6_ISJ_EEEEE5firstB7v160006Ev, symObjAddr: 0x3A50, symBinAddr: 0x100004BE0, symSize: 0x20 }
  - { offsetInCU: 0xFCB0, offset: 0xFCB0, size: 0x8, addend: 0x0, symName: __ZNSt3__122__compressed_pair_elemIPNS_11__tree_nodeINS_12__value_typeINS_12basic_stringIcNS_11char_traitsIcEENS_9allocatorIcEEEENS_3mapIS8_iNS_4lessIS8_EENS6_INS_4pairIKS8_iEEEEEEEEPvEELi0ELb0EE5__getB7v160006Ev, symObjAddr: 0x3A70, symBinAddr: 0x100004C00, symSize: 0x10 }
  - { offsetInCU: 0xFCD6, offset: 0xFCD6, size: 0x8, addend: 0x0, symName: __ZNSt3__110unique_ptrINS_11__tree_nodeINS_12__value_typeINS_12basic_stringIcNS_11char_traitsIcEENS_9allocatorIcEEEENS_3mapIS8_iNS_4lessIS8_EENS6_INS_4pairIKS8_iEEEEEEEEPvEENS_22__tree_node_destructorINS6_ISJ_EEEEED2B7v160006Ev, symObjAddr: 0x3A80, symBinAddr: 0x100004C10, symSize: 0x20 }
  - { offsetInCU: 0xFD00, offset: 0xFD00, size: 0x8, addend: 0x0, symName: __ZNSt3__110unique_ptrINS_11__tree_nodeINS_12__value_typeINS_12basic_stringIcNS_11char_traitsIcEENS_9allocatorIcEEEENS_3mapIS8_iNS_4lessIS8_EENS6_INS_4pairIKS8_iEEEEEEEEPvEENS_22__tree_node_destructorINS6_ISJ_EEEEE5resetB7v160006EPSJ_, symObjAddr: 0x3AA0, symBinAddr: 0x100004C30, symSize: 0x70 }
  - { offsetInCU: 0xFD44, offset: 0xFD44, size: 0x8, addend: 0x0, symName: __ZNSt3__122__tree_node_destructorINS_9allocatorINS_11__tree_nodeINS_12__value_typeINS_12basic_stringIcNS_11char_traitsIcEENS1_IcEEEENS_3mapIS8_iNS_4lessIS8_EENS1_INS_4pairIKS8_iEEEEEEEEPvEEEEEclB7v160006EPSJ_, symObjAddr: 0x3B10, symBinAddr: 0x100004CA0, symSize: 0x90 }
  - { offsetInCU: 0xFD79, offset: 0xFD79, size: 0x8, addend: 0x0, symName: __ZNSt3__116allocator_traitsINS_9allocatorINS_11__tree_nodeINS_12__value_typeINS_12basic_stringIcNS_11char_traitsIcEENS1_IcEEEENS_3mapIS8_iNS_4lessIS8_EENS1_INS_4pairIKS8_iEEEEEEEEPvEEEEE7destroyB7v160006INSC_ISD_SG_EEvvEEvRSK_PT_, symObjAddr: 0x3BA0, symBinAddr: 0x100004D30, symSize: 0x20 }
  - { offsetInCU: 0xFDB4, offset: 0xFDB4, size: 0x8, addend: 0x0, symName: __ZNSt3__116allocator_traitsINS_9allocatorINS_11__tree_nodeINS_12__value_typeINS_12basic_stringIcNS_11char_traitsIcEENS1_IcEEEENS_3mapIS8_iNS_4lessIS8_EENS1_INS_4pairIKS8_iEEEEEEEEPvEEEEE10deallocateB7v160006ERSK_PSJ_m, symObjAddr: 0x3BC0, symBinAddr: 0x100004D50, symSize: 0x30 }
  - { offsetInCU: 0xFDF6, offset: 0xFDF6, size: 0x8, addend: 0x0, symName: __ZNSt3__14pairIKNS_12basic_stringIcNS_11char_traitsIcEENS_9allocatorIcEEEENS_3mapIS6_iNS_4lessIS6_EENS4_INS0_IS7_iEEEEEEED1Ev, symObjAddr: 0x3BF0, symBinAddr: 0x100004D80, symSize: 0x20 }
  - { offsetInCU: 0xFE22, offset: 0xFE22, size: 0x8, addend: 0x0, symName: __ZNSt3__14pairIKNS_12basic_stringIcNS_11char_traitsIcEENS_9allocatorIcEEEENS_3mapIS6_iNS_4lessIS6_EENS4_INS0_IS7_iEEEEEEED2Ev, symObjAddr: 0x3C10, symBinAddr: 0x100004DA0, symSize: 0x30 }
  - { offsetInCU: 0xFE4E, offset: 0xFE4E, size: 0x8, addend: 0x0, symName: __ZNSt3__13mapINS_12basic_stringIcNS_11char_traitsIcEENS_9allocatorIcEEEEiNS_4lessIS6_EENS4_INS_4pairIKS6_iEEEEED1B7v160006Ev, symObjAddr: 0x3C40, symBinAddr: 0x100004DD0, symSize: 0x20 }
  - { offsetInCU: 0xFE78, offset: 0xFE78, size: 0x8, addend: 0x0, symName: __ZNSt3__13mapINS_12basic_stringIcNS_11char_traitsIcEENS_9allocatorIcEEEEiNS_4lessIS6_EENS4_INS_4pairIKS6_iEEEEED2B7v160006Ev, symObjAddr: 0x3C60, symBinAddr: 0x100004DF0, symSize: 0x20 }
  - { offsetInCU: 0xFEA2, offset: 0xFEA2, size: 0x8, addend: 0x0, symName: __ZNSt3__16__treeINS_12__value_typeINS_12basic_stringIcNS_11char_traitsIcEENS_9allocatorIcEEEEiEENS_19__map_value_compareIS7_S8_NS_4lessIS7_EELb1EEENS5_IS8_EEED1Ev, symObjAddr: 0x3C80, symBinAddr: 0x100004E10, symSize: 0x20 }
  - { offsetInCU: 0xFECE, offset: 0xFECE, size: 0x8, addend: 0x0, symName: __ZNSt3__16__treeINS_12__value_typeINS_12basic_stringIcNS_11char_traitsIcEENS_9allocatorIcEEEEiEENS_19__map_value_compareIS7_S8_NS_4lessIS7_EELb1EEENS5_IS8_EEED2Ev, symObjAddr: 0x3CA0, symBinAddr: 0x100004E30, symSize: 0x30 }
  - { offsetInCU: 0xFEFA, offset: 0xFEFA, size: 0x8, addend: 0x0, symName: __ZNSt3__16__treeINS_12__value_typeINS_12basic_stringIcNS_11char_traitsIcEENS_9allocatorIcEEEEiEENS_19__map_value_compareIS7_S8_NS_4lessIS7_EELb1EEENS5_IS8_EEE7destroyEPNS_11__tree_nodeIS8_PvEE, symObjAddr: 0x3CD0, symBinAddr: 0x100004E60, symSize: 0xB0 }
  - { offsetInCU: 0xFF46, offset: 0xFF46, size: 0x8, addend: 0x0, symName: __ZNKSt3__16__treeINS_12__value_typeINS_12basic_stringIcNS_11char_traitsIcEENS_9allocatorIcEEEEiEENS_19__map_value_compareIS7_S8_NS_4lessIS7_EELb1EEENS5_IS8_EEE6__rootB7v160006Ev, symObjAddr: 0x3D80, symBinAddr: 0x100004F10, symSize: 0x20 }
  - { offsetInCU: 0xFF6C, offset: 0xFF6C, size: 0x8, addend: 0x0, symName: __ZNSt3__16__treeINS_12__value_typeINS_12basic_stringIcNS_11char_traitsIcEENS_9allocatorIcEEEEiEENS_19__map_value_compareIS7_S8_NS_4lessIS7_EELb1EEENS5_IS8_EEE12__node_allocB7v160006Ev, symObjAddr: 0x3DA0, symBinAddr: 0x100004F30, symSize: 0x20 }
  - { offsetInCU: 0xFF92, offset: 0xFF92, size: 0x8, addend: 0x0, symName: __ZNSt3__116allocator_traitsINS_9allocatorINS_11__tree_nodeINS_12__value_typeINS_12basic_stringIcNS_11char_traitsIcEENS1_IcEEEEiEEPvEEEEE7destroyB7v160006INS_4pairIKS8_iEEvvEEvRSC_PT_, symObjAddr: 0x3DC0, symBinAddr: 0x100004F50, symSize: 0x20 }
  - { offsetInCU: 0xFFCD, offset: 0xFFCD, size: 0x8, addend: 0x0, symName: __ZNSt3__122__tree_key_value_typesINS_12__value_typeINS_12basic_stringIcNS_11char_traitsIcEENS_9allocatorIcEEEEiEEE9__get_ptrB7v160006ERS8_, symObjAddr: 0x3DE0, symBinAddr: 0x100004F70, symSize: 0x20 }
  - { offsetInCU: 0xFFF1, offset: 0xFFF1, size: 0x8, addend: 0x0, symName: __ZNSt3__116allocator_traitsINS_9allocatorINS_11__tree_nodeINS_12__value_typeINS_12basic_stringIcNS_11char_traitsIcEENS1_IcEEEEiEEPvEEEEE10deallocateB7v160006ERSC_PSB_m, symObjAddr: 0x3E00, symBinAddr: 0x100004F90, symSize: 0x30 }
  - { offsetInCU: 0x10033, offset: 0x10033, size: 0x8, addend: 0x0, symName: __ZNSt3__117__compressed_pairINS_15__tree_end_nodeIPNS_16__tree_node_baseIPvEEEENS_9allocatorINS_11__tree_nodeINS_12__value_typeINS_12basic_stringIcNS_11char_traitsIcEENS7_IcEEEEiEES3_EEEEE6secondB7v160006Ev, symObjAddr: 0x3E30, symBinAddr: 0x100004FC0, symSize: 0x20 }
  - { offsetInCU: 0x10059, offset: 0x10059, size: 0x8, addend: 0x0, symName: __ZNSt3__122__compressed_pair_elemINS_9allocatorINS_11__tree_nodeINS_12__value_typeINS_12basic_stringIcNS_11char_traitsIcEENS1_IcEEEEiEEPvEEEELi1ELb1EE5__getB7v160006Ev, symObjAddr: 0x3E50, symBinAddr: 0x100004FE0, symSize: 0x10 }
  - { offsetInCU: 0x1007F, offset: 0x1007F, size: 0x8, addend: 0x0, symName: __ZNSt3__14pairIKNS_12basic_stringIcNS_11char_traitsIcEENS_9allocatorIcEEEEiED1Ev, symObjAddr: 0x3E60, symBinAddr: 0x100004FF0, symSize: 0x20 }
  - { offsetInCU: 0x100AB, offset: 0x100AB, size: 0x8, addend: 0x0, symName: __ZNSt3__14pairIKNS_12basic_stringIcNS_11char_traitsIcEENS_9allocatorIcEEEEiED2Ev, symObjAddr: 0x3E80, symBinAddr: 0x100005010, symSize: 0x20 }
  - { offsetInCU: 0x100D7, offset: 0x100D7, size: 0x8, addend: 0x0, symName: __ZNSt3__112__value_typeINS_12basic_stringIcNS_11char_traitsIcEENS_9allocatorIcEEEEiE11__get_valueB7v160006Ev, symObjAddr: 0x3EA0, symBinAddr: 0x100005030, symSize: 0x10 }
  - { offsetInCU: 0x100FD, offset: 0x100FD, size: 0x8, addend: 0x0, symName: __ZNSt3__19allocatorINS_11__tree_nodeINS_12__value_typeINS_12basic_stringIcNS_11char_traitsIcEENS0_IcEEEEiEEPvEEE10deallocateB7v160006EPSA_m, symObjAddr: 0x3EB0, symBinAddr: 0x100005040, symSize: 0x40 }
  - { offsetInCU: 0x1013F, offset: 0x1013F, size: 0x8, addend: 0x0, symName: __ZNKSt3__16__treeINS_12__value_typeINS_12basic_stringIcNS_11char_traitsIcEENS_9allocatorIcEEEEiEENS_19__map_value_compareIS7_S8_NS_4lessIS7_EELb1EEENS5_IS8_EEE10__end_nodeB7v160006Ev, symObjAddr: 0x3F60, symBinAddr: 0x1000050F0, symSize: 0x30 }
  - { offsetInCU: 0x10165, offset: 0x10165, size: 0x8, addend: 0x0, symName: __ZNKSt3__117__compressed_pairINS_15__tree_end_nodeIPNS_16__tree_node_baseIPvEEEENS_9allocatorINS_11__tree_nodeINS_12__value_typeINS_12basic_stringIcNS_11char_traitsIcEENS7_IcEEEEiEES3_EEEEE5firstB7v160006Ev, symObjAddr: 0x3F90, symBinAddr: 0x100005120, symSize: 0x20 }
  - { offsetInCU: 0x1018B, offset: 0x1018B, size: 0x8, addend: 0x0, symName: __ZNSt3__19allocatorINS_11__tree_nodeINS_12__value_typeINS_12basic_stringIcNS_11char_traitsIcEENS0_IcEEEENS_3mapIS7_iNS_4lessIS7_EENS0_INS_4pairIKS7_iEEEEEEEEPvEEE10deallocateB7v160006EPSI_m, symObjAddr: 0x3FB0, symBinAddr: 0x100005140, symSize: 0x50 }
  - { offsetInCU: 0x101CD, offset: 0x101CD, size: 0x8, addend: 0x0, symName: __ZNSt3__115__tree_iteratorINS_12__value_typeINS_12basic_stringIcNS_11char_traitsIcEENS_9allocatorIcEEEENS_3mapIS7_iNS_4lessIS7_EENS5_INS_4pairIKS7_iEEEEEEEEPNS_11__tree_nodeISG_PvEElEC2B7v160006ESK_, symObjAddr: 0x4000, symBinAddr: 0x100005190, symSize: 0x20 }
  - { offsetInCU: 0x10206, offset: 0x10206, size: 0x8, addend: 0x0, symName: __ZNSt3__14pairINS_15__tree_iteratorINS_12__value_typeINS_12basic_stringIcNS_11char_traitsIcEENS_9allocatorIcEEEENS_3mapIS8_iNS_4lessIS8_EENS6_INS0_IKS8_iEEEEEEEEPNS_11__tree_nodeISG_PvEElEEbEC2B7v160006ISL_RbLSI_0EEEOT_OT0_, symObjAddr: 0x4020, symBinAddr: 0x1000051B0, symSize: 0x30 }
  - { offsetInCU: 0x10264, offset: 0x10264, size: 0x8, addend: 0x0, symName: __ZNSt3__15tupleIJRKNS_12basic_stringIcNS_11char_traitsIcEENS_9allocatorIcEEEEEEC1B7v160006INS_4_AndELi0EEES8_, symObjAddr: 0x4050, symBinAddr: 0x1000051E0, symSize: 0x30 }
  - { offsetInCU: 0x102AC, offset: 0x102AC, size: 0x8, addend: 0x0, symName: __ZNSt3__15tupleIJRKNS_12basic_stringIcNS_11char_traitsIcEENS_9allocatorIcEEEEEEC2B7v160006INS_4_AndELi0EEES8_, symObjAddr: 0x4080, symBinAddr: 0x100005210, symSize: 0x30 }
  - { offsetInCU: 0x102F4, offset: 0x102F4, size: 0x8, addend: 0x0, symName: __ZNSt3__112__tuple_implINS_15__tuple_indicesIJLm0EEEEJRKNS_12basic_stringIcNS_11char_traitsIcEENS_9allocatorIcEEEEEEC1B7v160006IJLm0EEJSA_EJEJEJSA_EEENS1_IJXspT_EEEENS_13__tuple_typesIJDpT0_EEENS1_IJXspT1_EEEENSE_IJDpT2_EEEDpOT3_, symObjAddr: 0x40B0, symBinAddr: 0x100005240, symSize: 0x30 }
  - { offsetInCU: 0x10389, offset: 0x10389, size: 0x8, addend: 0x0, symName: __ZNSt3__112__tuple_implINS_15__tuple_indicesIJLm0EEEEJRKNS_12basic_stringIcNS_11char_traitsIcEENS_9allocatorIcEEEEEEC2B7v160006IJLm0EEJSA_EJEJEJSA_EEENS1_IJXspT_EEEENS_13__tuple_typesIJDpT0_EEENS1_IJXspT1_EEEENSE_IJDpT2_EEEDpOT3_, symObjAddr: 0x40E0, symBinAddr: 0x100005270, symSize: 0x30 }
  - { offsetInCU: 0x1041E, offset: 0x1041E, size: 0x8, addend: 0x0, symName: __ZNSt3__112__tuple_leafILm0ERKNS_12basic_stringIcNS_11char_traitsIcEENS_9allocatorIcEEEELb0EEC2B7v160006IS8_vEEOT_, symObjAddr: 0x4110, symBinAddr: 0x1000052A0, symSize: 0x20 }
  - { offsetInCU: 0x10461, offset: 0x10461, size: 0x8, addend: 0x0, symName: __ZNSt3__114pointer_traitsIPNS_12__value_typeINS_12basic_stringIcNS_11char_traitsIcEENS_9allocatorIcEEEENS_3mapIS7_iNS_4lessIS7_EENS5_INS_4pairIKS7_iEEEEEEEEE10pointer_toB7v160006ERSG_, symObjAddr: 0x4130, symBinAddr: 0x1000052C0, symSize: 0x10 }
  - { offsetInCU: 0x10484, offset: 0x10484, size: 0x8, addend: 0x0, symName: __ZNKSt3__115__tree_iteratorINS_12__value_typeINS_12basic_stringIcNS_11char_traitsIcEENS_9allocatorIcEEEENS_3mapIS7_iNS_4lessIS7_EENS5_INS_4pairIKS7_iEEEEEEEEPNS_11__tree_nodeISG_PvEElE8__get_npB7v160006Ev, symObjAddr: 0x4140, symBinAddr: 0x1000052D0, symSize: 0x20 }
  - { offsetInCU: 0x104AA, offset: 0x104AA, size: 0x8, addend: 0x0, symName: __ZNSt3__16__treeINS_12__value_typeINS_12basic_stringIcNS_11char_traitsIcEENS_9allocatorIcEEEEiEENS_19__map_value_compareIS7_S8_NS_4lessIS7_EELb1EEENS5_IS8_EEE25__emplace_unique_key_argsIS7_JRKNS_21piecewise_construct_tENS_5tupleIJRKS7_EEENSJ_IJEEEEEENS_4pairINS_15__tree_iteratorIS8_PNS_11__tree_nodeIS8_PvEElEEbEERKT_DpOT0_, symObjAddr: 0x4160, symBinAddr: 0x1000052F0, symSize: 0x100 }
  - { offsetInCU: 0x10589, offset: 0x10589, size: 0x8, addend: 0x0, symName: __ZNKSt3__115__tree_iteratorINS_12__value_typeINS_12basic_stringIcNS_11char_traitsIcEENS_9allocatorIcEEEEiEEPNS_11__tree_nodeIS8_PvEElEptB7v160006Ev, symObjAddr: 0x4260, symBinAddr: 0x1000053F0, symSize: 0x30 }
  - { offsetInCU: 0x105AF, offset: 0x105AF, size: 0x8, addend: 0x0, symName: __ZNSt3__16__treeINS_12__value_typeINS_12basic_stringIcNS_11char_traitsIcEENS_9allocatorIcEEEEiEENS_19__map_value_compareIS7_S8_NS_4lessIS7_EELb1EEENS5_IS8_EEE12__find_equalIS7_EERPNS_16__tree_node_baseIPvEERPNS_15__tree_end_nodeISJ_EERKT_, symObjAddr: 0x4290, symBinAddr: 0x100005420, symSize: 0x180 }
  - { offsetInCU: 0x1061C, offset: 0x1061C, size: 0x8, addend: 0x0, symName: __ZNSt3__16__treeINS_12__value_typeINS_12basic_stringIcNS_11char_traitsIcEENS_9allocatorIcEEEEiEENS_19__map_value_compareIS7_S8_NS_4lessIS7_EELb1EEENS5_IS8_EEE16__construct_nodeIJRKNS_21piecewise_construct_tENS_5tupleIJRKS7_EEENSJ_IJEEEEEENS_10unique_ptrINS_11__tree_nodeIS8_PvEENS_22__tree_node_destructorINS5_ISR_EEEEEEDpOT_, symObjAddr: 0x4410, symBinAddr: 0x1000055A0, symSize: 0x120 }
  - { offsetInCU: 0x106A5, offset: 0x106A5, size: 0x8, addend: 0x0, symName: __ZNSt3__16__treeINS_12__value_typeINS_12basic_stringIcNS_11char_traitsIcEENS_9allocatorIcEEEEiEENS_19__map_value_compareIS7_S8_NS_4lessIS7_EELb1EEENS5_IS8_EEE16__insert_node_atEPNS_15__tree_end_nodeIPNS_16__tree_node_baseIPvEEEERSJ_SJ_, symObjAddr: 0x4530, symBinAddr: 0x1000056C0, symSize: 0xC0 }
  - { offsetInCU: 0x106FA, offset: 0x106FA, size: 0x8, addend: 0x0, symName: __ZNKSt3__110unique_ptrINS_11__tree_nodeINS_12__value_typeINS_12basic_stringIcNS_11char_traitsIcEENS_9allocatorIcEEEEiEEPvEENS_22__tree_node_destructorINS6_ISB_EEEEE3getB7v160006Ev, symObjAddr: 0x45F0, symBinAddr: 0x100005780, symSize: 0x20 }
  - { offsetInCU: 0x10720, offset: 0x10720, size: 0x8, addend: 0x0, symName: __ZNSt3__110unique_ptrINS_11__tree_nodeINS_12__value_typeINS_12basic_stringIcNS_11char_traitsIcEENS_9allocatorIcEEEEiEEPvEENS_22__tree_node_destructorINS6_ISB_EEEEE7releaseB7v160006Ev, symObjAddr: 0x4610, symBinAddr: 0x1000057A0, symSize: 0x40 }
  - { offsetInCU: 0x10755, offset: 0x10755, size: 0x8, addend: 0x0, symName: __ZNSt3__110unique_ptrINS_11__tree_nodeINS_12__value_typeINS_12basic_stringIcNS_11char_traitsIcEENS_9allocatorIcEEEEiEEPvEENS_22__tree_node_destructorINS6_ISB_EEEEED1B7v160006Ev, symObjAddr: 0x4650, symBinAddr: 0x1000057E0, symSize: 0x20 }
  - { offsetInCU: 0x1077F, offset: 0x1077F, size: 0x8, addend: 0x0, symName: __ZNSt3__115__tree_iteratorINS_12__value_typeINS_12basic_stringIcNS_11char_traitsIcEENS_9allocatorIcEEEEiEEPNS_11__tree_nodeIS8_PvEElEC1B7v160006ESC_, symObjAddr: 0x4670, symBinAddr: 0x100005800, symSize: 0x30 }
  - { offsetInCU: 0x107BD, offset: 0x107BD, size: 0x8, addend: 0x0, symName: __ZNSt3__14pairINS_15__tree_iteratorINS_12__value_typeINS_12basic_stringIcNS_11char_traitsIcEENS_9allocatorIcEEEEiEEPNS_11__tree_nodeIS9_PvEElEEbEC1B7v160006ISE_RbLSB_0EEEOT_OT0_, symObjAddr: 0x46A0, symBinAddr: 0x100005830, symSize: 0x30 }
  - { offsetInCU: 0x1081B, offset: 0x1081B, size: 0x8, addend: 0x0, symName: __ZNKSt3__16__treeINS_12__value_typeINS_12basic_stringIcNS_11char_traitsIcEENS_9allocatorIcEEEEiEENS_19__map_value_compareIS7_S8_NS_4lessIS7_EELb1EEENS5_IS8_EEE10__root_ptrEv, symObjAddr: 0x46D0, symBinAddr: 0x100005860, symSize: 0x20 }
  - { offsetInCU: 0x10841, offset: 0x10841, size: 0x8, addend: 0x0, symName: __ZNSt3__16__treeINS_12__value_typeINS_12basic_stringIcNS_11char_traitsIcEENS_9allocatorIcEEEEiEENS_19__map_value_compareIS7_S8_NS_4lessIS7_EELb1EEENS5_IS8_EEE10value_compB7v160006Ev, symObjAddr: 0x46F0, symBinAddr: 0x100005880, symSize: 0x20 }
  - { offsetInCU: 0x10867, offset: 0x10867, size: 0x8, addend: 0x0, symName: __ZNKSt3__119__map_value_compareINS_12basic_stringIcNS_11char_traitsIcEENS_9allocatorIcEEEENS_12__value_typeIS6_iEENS_4lessIS6_EELb1EEclB7v160006ERKS6_RKS8_, symObjAddr: 0x4710, symBinAddr: 0x1000058A0, symSize: 0x50 }
  - { offsetInCU: 0x108AB, offset: 0x108AB, size: 0x8, addend: 0x0, symName: __ZNKSt3__119__map_value_compareINS_12basic_stringIcNS_11char_traitsIcEENS_9allocatorIcEEEENS_12__value_typeIS6_iEENS_4lessIS6_EELb1EEclB7v160006ERKS8_RKS6_, symObjAddr: 0x4760, symBinAddr: 0x1000058F0, symSize: 0x40 }
  - { offsetInCU: 0x108EF, offset: 0x108EF, size: 0x8, addend: 0x0, symName: __ZNSt3__117__compressed_pairImNS_19__map_value_compareINS_12basic_stringIcNS_11char_traitsIcEENS_9allocatorIcEEEENS_12__value_typeIS7_iEENS_4lessIS7_EELb1EEEE6secondB7v160006Ev, symObjAddr: 0x47A0, symBinAddr: 0x100005930, symSize: 0x20 }
  - { offsetInCU: 0x10915, offset: 0x10915, size: 0x8, addend: 0x0, symName: __ZNSt3__122__compressed_pair_elemINS_19__map_value_compareINS_12basic_stringIcNS_11char_traitsIcEENS_9allocatorIcEEEENS_12__value_typeIS7_iEENS_4lessIS7_EELb1EEELi1ELb1EE5__getB7v160006Ev, symObjAddr: 0x47C0, symBinAddr: 0x100005950, symSize: 0x10 }
  - { offsetInCU: 0x1093B, offset: 0x1093B, size: 0x8, addend: 0x0, symName: __ZNKSt3__112__value_typeINS_12basic_stringIcNS_11char_traitsIcEENS_9allocatorIcEEEEiE11__get_valueB7v160006Ev, symObjAddr: 0x47D0, symBinAddr: 0x100005960, symSize: 0x10 }
  - { offsetInCU: 0x10961, offset: 0x10961, size: 0x8, addend: 0x0, symName: __ZNSt3__116allocator_traitsINS_9allocatorINS_11__tree_nodeINS_12__value_typeINS_12basic_stringIcNS_11char_traitsIcEENS1_IcEEEEiEEPvEEEEE8allocateB7v160006ERSC_m, symObjAddr: 0x47E0, symBinAddr: 0x100005970, symSize: 0x30 }
  - { offsetInCU: 0x10994, offset: 0x10994, size: 0x8, addend: 0x0, symName: __ZNSt3__122__tree_node_destructorINS_9allocatorINS_11__tree_nodeINS_12__value_typeINS_12basic_stringIcNS_11char_traitsIcEENS1_IcEEEEiEEPvEEEEEC1B7v160006ERSC_b, symObjAddr: 0x4810, symBinAddr: 0x1000059A0, symSize: 0x40 }
  - { offsetInCU: 0x109E1, offset: 0x109E1, size: 0x8, addend: 0x0, symName: __ZNSt3__110unique_ptrINS_11__tree_nodeINS_12__value_typeINS_12basic_stringIcNS_11char_traitsIcEENS_9allocatorIcEEEEiEEPvEENS_22__tree_node_destructorINS6_ISB_EEEEEC1B7v160006ILb1EvEEPSB_NS_16__dependent_typeINS_27__unique_ptr_deleter_sfinaeISE_EEXT_EE20__good_rval_ref_typeE, symObjAddr: 0x4850, symBinAddr: 0x1000059E0, symSize: 0x30 }
  - { offsetInCU: 0x10A32, offset: 0x10A32, size: 0x8, addend: 0x0, symName: __ZNSt3__116allocator_traitsINS_9allocatorINS_11__tree_nodeINS_12__value_typeINS_12basic_stringIcNS_11char_traitsIcEENS1_IcEEEEiEEPvEEEEE9constructB7v160006INS_4pairIKS8_iEEJRKNS_21piecewise_construct_tENS_5tupleIJRSG_EEENSL_IJEEEEvEEvRSC_PT_DpOT0_, symObjAddr: 0x4880, symBinAddr: 0x100005A10, symSize: 0x40 }
  - { offsetInCU: 0x10AB1, offset: 0x10AB1, size: 0x8, addend: 0x0, symName: __ZNKSt3__110unique_ptrINS_11__tree_nodeINS_12__value_typeINS_12basic_stringIcNS_11char_traitsIcEENS_9allocatorIcEEEEiEEPvEENS_22__tree_node_destructorINS6_ISB_EEEEEptB7v160006Ev, symObjAddr: 0x48C0, symBinAddr: 0x100005A50, symSize: 0x20 }
  - { offsetInCU: 0x10AD7, offset: 0x10AD7, size: 0x8, addend: 0x0, symName: __ZNSt3__110unique_ptrINS_11__tree_nodeINS_12__value_typeINS_12basic_stringIcNS_11char_traitsIcEENS_9allocatorIcEEEEiEEPvEENS_22__tree_node_destructorINS6_ISB_EEEEE11get_deleterB7v160006Ev, symObjAddr: 0x48E0, symBinAddr: 0x100005A70, symSize: 0x20 }
  - { offsetInCU: 0x10AFD, offset: 0x10AFD, size: 0x8, addend: 0x0, symName: __ZNSt3__19allocatorINS_11__tree_nodeINS_12__value_typeINS_12basic_stringIcNS_11char_traitsIcEENS0_IcEEEEiEEPvEEE8allocateB7v160006Em, symObjAddr: 0x4900, symBinAddr: 0x100005A90, symSize: 0x50 }
  - { offsetInCU: 0x10B3B, offset: 0x10B3B, size: 0x8, addend: 0x0, symName: __ZNSt3__116allocator_traitsINS_9allocatorINS_11__tree_nodeINS_12__value_typeINS_12basic_stringIcNS_11char_traitsIcEENS1_IcEEEEiEEPvEEEEE8max_sizeB7v160006ISC_vEEmRKSC_, symObjAddr: 0x4950, symBinAddr: 0x100005AE0, symSize: 0x20 }
  - { offsetInCU: 0x10B69, offset: 0x10B69, size: 0x8, addend: 0x0, symName: __ZNKSt3__19allocatorINS_11__tree_nodeINS_12__value_typeINS_12basic_stringIcNS_11char_traitsIcEENS0_IcEEEEiEEPvEEE8max_sizeB7v160006Ev, symObjAddr: 0x4970, symBinAddr: 0x100005B00, symSize: 0x20 }
  - { offsetInCU: 0x10B8F, offset: 0x10B8F, size: 0x8, addend: 0x0, symName: __ZNSt3__122__tree_node_destructorINS_9allocatorINS_11__tree_nodeINS_12__value_typeINS_12basic_stringIcNS_11char_traitsIcEENS1_IcEEEEiEEPvEEEEEC2B7v160006ERSC_b, symObjAddr: 0x4990, symBinAddr: 0x100005B20, symSize: 0x30 }
  - { offsetInCU: 0x10BD7, offset: 0x10BD7, size: 0x8, addend: 0x0, symName: __ZNSt3__110unique_ptrINS_11__tree_nodeINS_12__value_typeINS_12basic_stringIcNS_11char_traitsIcEENS_9allocatorIcEEEEiEEPvEENS_22__tree_node_destructorINS6_ISB_EEEEEC2B7v160006ILb1EvEEPSB_NS_16__dependent_typeINS_27__unique_ptr_deleter_sfinaeISE_EEXT_EE20__good_rval_ref_typeE, symObjAddr: 0x49C0, symBinAddr: 0x100005B50, symSize: 0x40 }
  - { offsetInCU: 0x10C28, offset: 0x10C28, size: 0x8, addend: 0x0, symName: __ZNSt3__117__compressed_pairIPNS_11__tree_nodeINS_12__value_typeINS_12basic_stringIcNS_11char_traitsIcEENS_9allocatorIcEEEEiEEPvEENS_22__tree_node_destructorINS6_ISB_EEEEEC1B7v160006IRSC_SF_EEOT_OT0_, symObjAddr: 0x4A00, symBinAddr: 0x100005B90, symSize: 0x30 }
  - { offsetInCU: 0x10C80, offset: 0x10C80, size: 0x8, addend: 0x0, symName: __ZNSt3__117__compressed_pairIPNS_11__tree_nodeINS_12__value_typeINS_12basic_stringIcNS_11char_traitsIcEENS_9allocatorIcEEEEiEEPvEENS_22__tree_node_destructorINS6_ISB_EEEEEC2B7v160006IRSC_SF_EEOT_OT0_, symObjAddr: 0x4A30, symBinAddr: 0x100005BC0, symSize: 0x40 }
  - { offsetInCU: 0x10CD8, offset: 0x10CD8, size: 0x8, addend: 0x0, symName: __ZNSt3__122__compressed_pair_elemIPNS_11__tree_nodeINS_12__value_typeINS_12basic_stringIcNS_11char_traitsIcEENS_9allocatorIcEEEEiEEPvEELi0ELb0EEC2B7v160006IRSC_vEEOT_, symObjAddr: 0x4A70, symBinAddr: 0x100005C00, symSize: 0x20 }
  - { offsetInCU: 0x10D1A, offset: 0x10D1A, size: 0x8, addend: 0x0, symName: __ZNSt3__122__compressed_pair_elemINS_22__tree_node_destructorINS_9allocatorINS_11__tree_nodeINS_12__value_typeINS_12basic_stringIcNS_11char_traitsIcEENS2_IcEEEEiEEPvEEEEEELi1ELb0EEC2B7v160006ISE_vEEOT_, symObjAddr: 0x4A90, symBinAddr: 0x100005C20, symSize: 0x30 }
  - { offsetInCU: 0x10D5C, offset: 0x10D5C, size: 0x8, addend: 0x0, symName: __ZNSt3__19allocatorINS_11__tree_nodeINS_12__value_typeINS_12basic_stringIcNS_11char_traitsIcEENS0_IcEEEEiEEPvEEE9constructB7v160006INS_4pairIKS7_iEEJRKNS_21piecewise_construct_tENS_5tupleIJRSE_EEENSJ_IJEEEEEEvPT_DpOT0_, symObjAddr: 0x4AC0, symBinAddr: 0x100005C50, symSize: 0x40 }
  - { offsetInCU: 0x10DD8, offset: 0x10DD8, size: 0x8, addend: 0x0, symName: __ZNSt3__14pairIKNS_12basic_stringIcNS_11char_traitsIcEENS_9allocatorIcEEEEiEC1B7v160006IJRS7_EJEEENS_21piecewise_construct_tENS_5tupleIJDpT_EEENSC_IJDpT0_EEE, symObjAddr: 0x4B00, symBinAddr: 0x100005C90, symSize: 0x30 }
  - { offsetInCU: 0x10E3F, offset: 0x10E3F, size: 0x8, addend: 0x0, symName: __ZNSt3__14pairIKNS_12basic_stringIcNS_11char_traitsIcEENS_9allocatorIcEEEEiEC1B7v160006IJRS7_EJEJLm0EEJEEENS_21piecewise_construct_tERNS_5tupleIJDpT_EEERNSC_IJDpT0_EEENS_15__tuple_indicesIJXspT1_EEEENSL_IJXspT2_EEEE, symObjAddr: 0x4B30, symBinAddr: 0x100005CC0, symSize: 0x30 }
  - { offsetInCU: 0x10ECF, offset: 0x10ECF, size: 0x8, addend: 0x0, symName: __ZNSt3__14pairIKNS_12basic_stringIcNS_11char_traitsIcEENS_9allocatorIcEEEEiEC2B7v160006IJRS7_EJEJLm0EEJEEENS_21piecewise_construct_tERNS_5tupleIJDpT_EEERNSC_IJDpT0_EEENS_15__tuple_indicesIJXspT1_EEEENSL_IJXspT2_EEEE, symObjAddr: 0x4B60, symBinAddr: 0x100005CF0, symSize: 0x50 }
  - { offsetInCU: 0x10F5F, offset: 0x10F5F, size: 0x8, addend: 0x0, symName: __ZNKSt3__117__compressed_pairIPNS_11__tree_nodeINS_12__value_typeINS_12basic_stringIcNS_11char_traitsIcEENS_9allocatorIcEEEEiEEPvEENS_22__tree_node_destructorINS6_ISB_EEEEE5firstB7v160006Ev, symObjAddr: 0x4BB0, symBinAddr: 0x100005D40, symSize: 0x20 }
  - { offsetInCU: 0x10F85, offset: 0x10F85, size: 0x8, addend: 0x0, symName: __ZNKSt3__122__compressed_pair_elemIPNS_11__tree_nodeINS_12__value_typeINS_12basic_stringIcNS_11char_traitsIcEENS_9allocatorIcEEEEiEEPvEELi0ELb0EE5__getB7v160006Ev, symObjAddr: 0x4BD0, symBinAddr: 0x100005D60, symSize: 0x10 }
  - { offsetInCU: 0x10FAB, offset: 0x10FAB, size: 0x8, addend: 0x0, symName: __ZNSt3__117__compressed_pairIPNS_11__tree_nodeINS_12__value_typeINS_12basic_stringIcNS_11char_traitsIcEENS_9allocatorIcEEEEiEEPvEENS_22__tree_node_destructorINS6_ISB_EEEEE6secondB7v160006Ev, symObjAddr: 0x4BE0, symBinAddr: 0x100005D70, symSize: 0x20 }
  - { offsetInCU: 0x10FD1, offset: 0x10FD1, size: 0x8, addend: 0x0, symName: __ZNSt3__122__compressed_pair_elemINS_22__tree_node_destructorINS_9allocatorINS_11__tree_nodeINS_12__value_typeINS_12basic_stringIcNS_11char_traitsIcEENS2_IcEEEEiEEPvEEEEEELi1ELb0EE5__getB7v160006Ev, symObjAddr: 0x4C00, symBinAddr: 0x100005D90, symSize: 0x10 }
  - { offsetInCU: 0x10FF7, offset: 0x10FF7, size: 0x8, addend: 0x0, symName: __ZNSt3__16__treeINS_12__value_typeINS_12basic_stringIcNS_11char_traitsIcEENS_9allocatorIcEEEEiEENS_19__map_value_compareIS7_S8_NS_4lessIS7_EELb1EEENS5_IS8_EEE4sizeB7v160006Ev, symObjAddr: 0x4C10, symBinAddr: 0x100005DA0, symSize: 0x20 }
  - { offsetInCU: 0x1101D, offset: 0x1101D, size: 0x8, addend: 0x0, symName: __ZNSt3__117__compressed_pairImNS_19__map_value_compareINS_12basic_stringIcNS_11char_traitsIcEENS_9allocatorIcEEEENS_12__value_typeIS7_iEENS_4lessIS7_EELb1EEEE5firstB7v160006Ev, symObjAddr: 0x4C30, symBinAddr: 0x100005DC0, symSize: 0x20 }
  - { offsetInCU: 0x11043, offset: 0x11043, size: 0x8, addend: 0x0, symName: __ZNSt3__117__compressed_pairIPNS_11__tree_nodeINS_12__value_typeINS_12basic_stringIcNS_11char_traitsIcEENS_9allocatorIcEEEEiEEPvEENS_22__tree_node_destructorINS6_ISB_EEEEE5firstB7v160006Ev, symObjAddr: 0x4C50, symBinAddr: 0x100005DE0, symSize: 0x20 }
  - { offsetInCU: 0x11069, offset: 0x11069, size: 0x8, addend: 0x0, symName: __ZNSt3__122__compressed_pair_elemIPNS_11__tree_nodeINS_12__value_typeINS_12basic_stringIcNS_11char_traitsIcEENS_9allocatorIcEEEEiEEPvEELi0ELb0EE5__getB7v160006Ev, symObjAddr: 0x4C70, symBinAddr: 0x100005E00, symSize: 0x10 }
  - { offsetInCU: 0x1108F, offset: 0x1108F, size: 0x8, addend: 0x0, symName: __ZNSt3__110unique_ptrINS_11__tree_nodeINS_12__value_typeINS_12basic_stringIcNS_11char_traitsIcEENS_9allocatorIcEEEEiEEPvEENS_22__tree_node_destructorINS6_ISB_EEEEED2B7v160006Ev, symObjAddr: 0x4C80, symBinAddr: 0x100005E10, symSize: 0x20 }
  - { offsetInCU: 0x110B9, offset: 0x110B9, size: 0x8, addend: 0x0, symName: __ZNSt3__110unique_ptrINS_11__tree_nodeINS_12__value_typeINS_12basic_stringIcNS_11char_traitsIcEENS_9allocatorIcEEEEiEEPvEENS_22__tree_node_destructorINS6_ISB_EEEEE5resetB7v160006EPSB_, symObjAddr: 0x4CA0, symBinAddr: 0x100005E30, symSize: 0x70 }
  - { offsetInCU: 0x110FD, offset: 0x110FD, size: 0x8, addend: 0x0, symName: __ZNSt3__122__tree_node_destructorINS_9allocatorINS_11__tree_nodeINS_12__value_typeINS_12basic_stringIcNS_11char_traitsIcEENS1_IcEEEEiEEPvEEEEEclB7v160006EPSB_, symObjAddr: 0x4D10, symBinAddr: 0x100005EA0, symSize: 0x80 }
  - { offsetInCU: 0x11132, offset: 0x11132, size: 0x8, addend: 0x0, symName: __ZNSt3__115__tree_iteratorINS_12__value_typeINS_12basic_stringIcNS_11char_traitsIcEENS_9allocatorIcEEEEiEEPNS_11__tree_nodeIS8_PvEElEC2B7v160006ESC_, symObjAddr: 0x4D90, symBinAddr: 0x100005F20, symSize: 0x20 }
  - { offsetInCU: 0x1116B, offset: 0x1116B, size: 0x8, addend: 0x0, symName: __ZNSt3__14pairINS_15__tree_iteratorINS_12__value_typeINS_12basic_stringIcNS_11char_traitsIcEENS_9allocatorIcEEEEiEEPNS_11__tree_nodeIS9_PvEElEEbEC2B7v160006ISE_RbLSB_0EEEOT_OT0_, symObjAddr: 0x4DB0, symBinAddr: 0x100005F40, symSize: 0x30 }
  - { offsetInCU: 0x111C9, offset: 0x111C9, size: 0x8, addend: 0x0, symName: __ZNSt3__114pointer_traitsIPNS_12__value_typeINS_12basic_stringIcNS_11char_traitsIcEENS_9allocatorIcEEEEiEEE10pointer_toB7v160006ERS8_, symObjAddr: 0x4DE0, symBinAddr: 0x100005F70, symSize: 0x10 }
  - { offsetInCU: 0x111EC, offset: 0x111EC, size: 0x8, addend: 0x0, symName: __ZNKSt3__115__tree_iteratorINS_12__value_typeINS_12basic_stringIcNS_11char_traitsIcEENS_9allocatorIcEEEEiEEPNS_11__tree_nodeIS8_PvEElE8__get_npB7v160006Ev, symObjAddr: 0x4DF0, symBinAddr: 0x100005F80, symSize: 0x20 }
  - { offsetInCU: 0x11212, offset: 0x11212, size: 0x8, addend: 0x0, symName: __ZNSt3__16__treeINS_12__value_typeINS_12basic_stringIcNS_11char_traitsIcEENS_9allocatorIcEEEEiEENS_19__map_value_compareIS7_S8_NS_4lessIS7_EELb1EEENS5_IS8_EEE25__emplace_unique_key_argsIS7_JRKNS_21piecewise_construct_tENS_5tupleIJOS7_EEENSJ_IJEEEEEENS_4pairINS_15__tree_iteratorIS8_PNS_11__tree_nodeIS8_PvEElEEbEERKT_DpOT0_, symObjAddr: 0x4E10, symBinAddr: 0x100005FA0, symSize: 0x100 }
  - { offsetInCU: 0x112F1, offset: 0x112F1, size: 0x8, addend: 0x0, symName: __ZNSt3__16__treeINS_12__value_typeINS_12basic_stringIcNS_11char_traitsIcEENS_9allocatorIcEEEEiEENS_19__map_value_compareIS7_S8_NS_4lessIS7_EELb1EEENS5_IS8_EEE16__construct_nodeIJRKNS_21piecewise_construct_tENS_5tupleIJOS7_EEENSJ_IJEEEEEENS_10unique_ptrINS_11__tree_nodeIS8_PvEENS_22__tree_node_destructorINS5_ISQ_EEEEEEDpOT_, symObjAddr: 0x4F40, symBinAddr: 0x1000060D0, symSize: 0x120 }
  - { offsetInCU: 0x1137A, offset: 0x1137A, size: 0x8, addend: 0x0, symName: __ZNSt3__116allocator_traitsINS_9allocatorINS_11__tree_nodeINS_12__value_typeINS_12basic_stringIcNS_11char_traitsIcEENS1_IcEEEEiEEPvEEEEE9constructB7v160006INS_4pairIKS8_iEEJRKNS_21piecewise_construct_tENS_5tupleIJOS8_EEENSL_IJEEEEvEEvRSC_PT_DpOT0_, symObjAddr: 0x5060, symBinAddr: 0x1000061F0, symSize: 0x40 }
  - { offsetInCU: 0x113F9, offset: 0x113F9, size: 0x8, addend: 0x0, symName: __ZNSt3__19allocatorINS_11__tree_nodeINS_12__value_typeINS_12basic_stringIcNS_11char_traitsIcEENS0_IcEEEEiEEPvEEE9constructB7v160006INS_4pairIKS7_iEEJRKNS_21piecewise_construct_tENS_5tupleIJOS7_EEENSJ_IJEEEEEEvPT_DpOT0_, symObjAddr: 0x50A0, symBinAddr: 0x100006230, symSize: 0x40 }
  - { offsetInCU: 0x11475, offset: 0x11475, size: 0x8, addend: 0x0, symName: __ZNSt3__14pairIKNS_12basic_stringIcNS_11char_traitsIcEENS_9allocatorIcEEEEiEC1B7v160006IJOS6_EJEEENS_21piecewise_construct_tENS_5tupleIJDpT_EEENSC_IJDpT0_EEE, symObjAddr: 0x50E0, symBinAddr: 0x100006270, symSize: 0x40 }
  - { offsetInCU: 0x114DC, offset: 0x114DC, size: 0x8, addend: 0x0, symName: __ZNSt3__14pairIKNS_12basic_stringIcNS_11char_traitsIcEENS_9allocatorIcEEEEiEC1B7v160006IJOS6_EJEJLm0EEJEEENS_21piecewise_construct_tERNS_5tupleIJDpT_EEERNSC_IJDpT0_EEENS_15__tuple_indicesIJXspT1_EEEENSL_IJXspT2_EEEE, symObjAddr: 0x5120, symBinAddr: 0x1000062B0, symSize: 0x30 }
  - { offsetInCU: 0x1156C, offset: 0x1156C, size: 0x8, addend: 0x0, symName: __ZNSt3__14pairIKNS_12basic_stringIcNS_11char_traitsIcEENS_9allocatorIcEEEEiEC2B7v160006IJOS6_EJEJLm0EEJEEENS_21piecewise_construct_tERNS_5tupleIJDpT_EEERNSC_IJDpT0_EEENS_15__tuple_indicesIJXspT1_EEEENSL_IJXspT2_EEEE, symObjAddr: 0x5150, symBinAddr: 0x1000062E0, symSize: 0x50 }
  - { offsetInCU: 0x115FC, offset: 0x115FC, size: 0x8, addend: 0x0, symName: __ZNSt3__112basic_stringIcNS_11char_traitsIcEENS_9allocatorIcEEEC1B7v160006EOS5_, symObjAddr: 0x51C0, symBinAddr: 0x100006350, symSize: 0x30 }
  - { offsetInCU: 0x11635, offset: 0x11635, size: 0x8, addend: 0x0, symName: __ZNSt3__112__tuple_leafILm0EONS_12basic_stringIcNS_11char_traitsIcEENS_9allocatorIcEEEELb0EE3getB7v160006Ev, symObjAddr: 0x51F0, symBinAddr: 0x100006380, symSize: 0x20 }
  - { offsetInCU: 0x1165B, offset: 0x1165B, size: 0x8, addend: 0x0, symName: __ZNSt3__112basic_stringIcNS_11char_traitsIcEENS_9allocatorIcEEEC2B7v160006EOS5_, symObjAddr: 0x5210, symBinAddr: 0x1000063A0, symSize: 0x80 }
  - { offsetInCU: 0x11694, offset: 0x11694, size: 0x8, addend: 0x0, symName: __ZNSt3__15tupleIJONS_12basic_stringIcNS_11char_traitsIcEENS_9allocatorIcEEEEEEC1B7v160006IJS6_ELi0EEEDpOT_, symObjAddr: 0x52A0, symBinAddr: 0x100006430, symSize: 0x30 }
  - { offsetInCU: 0x116DE, offset: 0x116DE, size: 0x8, addend: 0x0, symName: __ZNSt3__15tupleIJONS_12basic_stringIcNS_11char_traitsIcEENS_9allocatorIcEEEEEEC2B7v160006IJS6_ELi0EEEDpOT_, symObjAddr: 0x52D0, symBinAddr: 0x100006460, symSize: 0x30 }
  - { offsetInCU: 0x11728, offset: 0x11728, size: 0x8, addend: 0x0, symName: __ZNSt3__112__tuple_implINS_15__tuple_indicesIJLm0EEEEJONS_12basic_stringIcNS_11char_traitsIcEENS_9allocatorIcEEEEEEC1B7v160006IJLm0EEJS9_EJEJEJS8_EEENS1_IJXspT_EEEENS_13__tuple_typesIJDpT0_EEENS1_IJXspT1_EEEENSD_IJDpT2_EEEDpOT3_, symObjAddr: 0x5300, symBinAddr: 0x100006490, symSize: 0x30 }
  - { offsetInCU: 0x117BD, offset: 0x117BD, size: 0x8, addend: 0x0, symName: __ZNSt3__112__tuple_implINS_15__tuple_indicesIJLm0EEEEJONS_12basic_stringIcNS_11char_traitsIcEENS_9allocatorIcEEEEEEC2B7v160006IJLm0EEJS9_EJEJEJS8_EEENS1_IJXspT_EEEENS_13__tuple_typesIJDpT0_EEENS1_IJXspT1_EEEENSD_IJDpT2_EEEDpOT3_, symObjAddr: 0x5330, symBinAddr: 0x1000064C0, symSize: 0x30 }
  - { offsetInCU: 0x11852, offset: 0x11852, size: 0x8, addend: 0x0, symName: __ZNSt3__112__tuple_leafILm0EONS_12basic_stringIcNS_11char_traitsIcEENS_9allocatorIcEEEELb0EEC2B7v160006IS6_vEEOT_, symObjAddr: 0x5360, symBinAddr: 0x1000064F0, symSize: 0x20 }
  - { offsetInCU: 0x11895, offset: 0x11895, size: 0x8, addend: 0x0, symName: __ZNSt3__16__treeINS_12__value_typeINS_12basic_stringIcNS_11char_traitsIcEENS_9allocatorIcEEEENS_3mapIS7_iNS_4lessIS7_EENS5_INS_4pairIKS7_iEEEEEEEENS_19__map_value_compareIS7_SG_SA_Lb1EEENS5_ISG_EEE25__emplace_unique_key_argsIS7_JRKNS_21piecewise_construct_tENS_5tupleIJOS7_EEENSP_IJEEEEEENSB_INS_15__tree_iteratorISG_PNS_11__tree_nodeISG_PvEElEEbEERKT_DpOT0_, symObjAddr: 0x5380, symBinAddr: 0x100006510, symSize: 0x100 }
  - { offsetInCU: 0x11974, offset: 0x11974, size: 0x8, addend: 0x0, symName: __ZNSt3__16__treeINS_12__value_typeINS_12basic_stringIcNS_11char_traitsIcEENS_9allocatorIcEEEENS_3mapIS7_iNS_4lessIS7_EENS5_INS_4pairIKS7_iEEEEEEEENS_19__map_value_compareIS7_SG_SA_Lb1EEENS5_ISG_EEE16__construct_nodeIJRKNS_21piecewise_construct_tENS_5tupleIJOS7_EEENSP_IJEEEEEENS_10unique_ptrINS_11__tree_nodeISG_PvEENS_22__tree_node_destructorINS5_ISW_EEEEEEDpOT_, symObjAddr: 0x5480, symBinAddr: 0x100006610, symSize: 0x120 }
  - { offsetInCU: 0x119FD, offset: 0x119FD, size: 0x8, addend: 0x0, symName: __ZNSt3__116allocator_traitsINS_9allocatorINS_11__tree_nodeINS_12__value_typeINS_12basic_stringIcNS_11char_traitsIcEENS1_IcEEEENS_3mapIS8_iNS_4lessIS8_EENS1_INS_4pairIKS8_iEEEEEEEEPvEEEEE9constructB7v160006INSC_ISD_SG_EEJRKNS_21piecewise_construct_tENS_5tupleIJOS8_EEENSR_IJEEEEvEEvRSK_PT_DpOT0_, symObjAddr: 0x55A0, symBinAddr: 0x100006730, symSize: 0x40 }
  - { offsetInCU: 0x11A7C, offset: 0x11A7C, size: 0x8, addend: 0x0, symName: __ZNSt3__19allocatorINS_11__tree_nodeINS_12__value_typeINS_12basic_stringIcNS_11char_traitsIcEENS0_IcEEEENS_3mapIS7_iNS_4lessIS7_EENS0_INS_4pairIKS7_iEEEEEEEEPvEEE9constructB7v160006INSB_ISC_SF_EEJRKNS_21piecewise_construct_tENS_5tupleIJOS7_EEENSP_IJEEEEEEvPT_DpOT0_, symObjAddr: 0x55E0, symBinAddr: 0x100006770, symSize: 0x40 }
  - { offsetInCU: 0x11AF8, offset: 0x11AF8, size: 0x8, addend: 0x0, symName: __ZNSt3__14pairIKNS_12basic_stringIcNS_11char_traitsIcEENS_9allocatorIcEEEENS_3mapIS6_iNS_4lessIS6_EENS4_INS0_IS7_iEEEEEEEC1B7v160006IJOS6_EJEEENS_21piecewise_construct_tENS_5tupleIJDpT_EEENSI_IJDpT0_EEE, symObjAddr: 0x5620, symBinAddr: 0x1000067B0, symSize: 0x40 }
  - { offsetInCU: 0x11B5F, offset: 0x11B5F, size: 0x8, addend: 0x0, symName: __ZNSt3__14pairIKNS_12basic_stringIcNS_11char_traitsIcEENS_9allocatorIcEEEENS_3mapIS6_iNS_4lessIS6_EENS4_INS0_IS7_iEEEEEEEC1B7v160006IJOS6_EJEJLm0EEJEEENS_21piecewise_construct_tERNS_5tupleIJDpT_EEERNSI_IJDpT0_EEENS_15__tuple_indicesIJXspT1_EEEENSR_IJXspT2_EEEE, symObjAddr: 0x5660, symBinAddr: 0x1000067F0, symSize: 0x30 }
  - { offsetInCU: 0x11BEF, offset: 0x11BEF, size: 0x8, addend: 0x0, symName: __ZNSt3__14pairIKNS_12basic_stringIcNS_11char_traitsIcEENS_9allocatorIcEEEENS_3mapIS6_iNS_4lessIS6_EENS4_INS0_IS7_iEEEEEEEC2B7v160006IJOS6_EJEJLm0EEJEEENS_21piecewise_construct_tERNS_5tupleIJDpT_EEERNSI_IJDpT0_EEENS_15__tuple_indicesIJXspT1_EEEENSR_IJXspT2_EEEE, symObjAddr: 0x5690, symBinAddr: 0x100006820, symSize: 0x50 }
  - { offsetInCU: 0x11C7F, offset: 0x11C7F, size: 0x8, addend: 0x0, symName: __ZNSt3__13mapINS_12basic_stringIcNS_11char_traitsIcEENS_9allocatorIcEEEENS0_IS6_iNS_4lessIS6_EENS4_INS_4pairIKS6_iEEEEEES8_NS4_INS9_ISA_SD_EEEEED2B7v160006Ev, symObjAddr: 0x56E0, symBinAddr: 0x100006870, symSize: 0x20 }
  - { offsetInCU: 0x11CA9, offset: 0x11CA9, size: 0x8, addend: 0x0, symName: __ZNSt3__16__treeINS_12__value_typeINS_12basic_stringIcNS_11char_traitsIcEENS_9allocatorIcEEEENS_3mapIS7_iNS_4lessIS7_EENS5_INS_4pairIKS7_iEEEEEEEENS_19__map_value_compareIS7_SG_SA_Lb1EEENS5_ISG_EEED1Ev, symObjAddr: 0x5700, symBinAddr: 0x100006890, symSize: 0x20 }
  - { offsetInCU: 0x11CD5, offset: 0x11CD5, size: 0x8, addend: 0x0, symName: __ZNSt3__16__treeINS_12__value_typeINS_12basic_stringIcNS_11char_traitsIcEENS_9allocatorIcEEEENS_3mapIS7_iNS_4lessIS7_EENS5_INS_4pairIKS7_iEEEEEEEENS_19__map_value_compareIS7_SG_SA_Lb1EEENS5_ISG_EEED2Ev, symObjAddr: 0x5720, symBinAddr: 0x1000068B0, symSize: 0x30 }
  - { offsetInCU: 0x11D01, offset: 0x11D01, size: 0x8, addend: 0x0, symName: __ZNSt3__16__treeINS_12__value_typeINS_12basic_stringIcNS_11char_traitsIcEENS_9allocatorIcEEEENS_3mapIS7_iNS_4lessIS7_EENS5_INS_4pairIKS7_iEEEEEEEENS_19__map_value_compareIS7_SG_SA_Lb1EEENS5_ISG_EEE7destroyEPNS_11__tree_nodeISG_PvEE, symObjAddr: 0x5750, symBinAddr: 0x1000068E0, symSize: 0xA0 }
  - { offsetInCU: 0x11D4D, offset: 0x11D4D, size: 0x8, addend: 0x0, symName: __ZNSt3__111char_traitsIcE6lengthEPKc, symObjAddr: 0x5880, symBinAddr: 0x100006A10, symSize: 0x30 }
  - { offsetInCU: 0x11D70, offset: 0x11D70, size: 0x8, addend: 0x0, symName: __ZN5PilotC2ERKNSt3__112basic_stringIcNS0_11char_traitsIcEENS0_9allocatorIcEEEEP5Plane, symObjAddr: 0x58D0, symBinAddr: 0x100006A60, symSize: 0xF0 }
  - { offsetInCU: 0x11DB8, offset: 0x11DB8, size: 0x8, addend: 0x0, symName: __ZN5PlaneD2Ev, symObjAddr: 0x59C0, symBinAddr: 0x100006B50, symSize: 0x80 }
  - { offsetInCU: 0x11DE2, offset: 0x11DE2, size: 0x8, addend: 0x0, symName: __ZN5PilotD2Ev, symObjAddr: 0x5A40, symBinAddr: 0x100006BD0, symSize: 0x90 }
  - { offsetInCU: 0x11E2A, offset: 0x11E2A, size: 0x8, addend: 0x0, symName: __ZNKSt3__113basic_ostreamIcNS_11char_traitsIcEEE6sentrycvbB7v160006Ev, symObjAddr: 0x5CC0, symBinAddr: 0x100006E50, symSize: 0x20 }
  - { offsetInCU: 0x11E50, offset: 0x11E50, size: 0x8, addend: 0x0, symName: __ZNSt3__119ostreambuf_iteratorIcNS_11char_traitsIcEEEC1B7v160006ERNS_13basic_ostreamIcS2_EE, symObjAddr: 0x5F00, symBinAddr: 0x100007090, symSize: 0x30 }
  - { offsetInCU: 0x11E88, offset: 0x11E88, size: 0x8, addend: 0x0, symName: __ZNKSt3__18ios_base5flagsB7v160006Ev, symObjAddr: 0x5F30, symBinAddr: 0x1000070C0, symSize: 0x20 }
  - { offsetInCU: 0x11EB0, offset: 0x11EB0, size: 0x8, addend: 0x0, symName: __ZNKSt3__19basic_iosIcNS_11char_traitsIcEEE4fillB7v160006Ev, symObjAddr: 0x5F50, symBinAddr: 0x1000070E0, symSize: 0x70 }
  - { offsetInCU: 0x11ED8, offset: 0x11ED8, size: 0x8, addend: 0x0, symName: __ZNKSt3__119ostreambuf_iteratorIcNS_11char_traitsIcEEE6failedB7v160006Ev, symObjAddr: 0x5FC0, symBinAddr: 0x100007150, symSize: 0x20 }
  - { offsetInCU: 0x11EFE, offset: 0x11EFE, size: 0x8, addend: 0x0, symName: __ZNSt3__19basic_iosIcNS_11char_traitsIcEEE8setstateB7v160006Ej, symObjAddr: 0x5FE0, symBinAddr: 0x100007170, symSize: 0x30 }
  - { offsetInCU: 0x11F33, offset: 0x11F33, size: 0x8, addend: 0x0, symName: __ZNKSt3__18ios_base5widthB7v160006Ev, symObjAddr: 0x6010, symBinAddr: 0x1000071A0, symSize: 0x20 }
  - { offsetInCU: 0x11F5B, offset: 0x11F5B, size: 0x8, addend: 0x0, symName: __ZNSt3__115basic_streambufIcNS_11char_traitsIcEEE5sputnB7v160006EPKcl, symObjAddr: 0x6030, symBinAddr: 0x1000071C0, symSize: 0x30 }
  - { offsetInCU: 0x11F9D, offset: 0x11F9D, size: 0x8, addend: 0x0, symName: __ZNSt3__112basic_stringIcNS_11char_traitsIcEENS_9allocatorIcEEEC1B7v160006Emc, symObjAddr: 0x6060, symBinAddr: 0x1000071F0, symSize: 0x30 }
  - { offsetInCU: 0x11FE5, offset: 0x11FE5, size: 0x8, addend: 0x0, symName: __ZNSt3__18ios_base5widthB7v160006El, symObjAddr: 0x6090, symBinAddr: 0x100007220, symSize: 0x30 }
  - { offsetInCU: 0x1202B, offset: 0x1202B, size: 0x8, addend: 0x0, symName: __ZNSt3__112basic_stringIcNS_11char_traitsIcEENS_9allocatorIcEEEC2B7v160006Emc, symObjAddr: 0x60C0, symBinAddr: 0x100007250, symSize: 0x50 }
  - { offsetInCU: 0x12073, offset: 0x12073, size: 0x8, addend: 0x0, symName: __ZNSt3__119ostreambuf_iteratorIcNS_11char_traitsIcEEEC2B7v160006ERNS_13basic_ostreamIcS2_EE, symObjAddr: 0x6110, symBinAddr: 0x1000072A0, symSize: 0x50 }
  - { offsetInCU: 0x120AB, offset: 0x120AB, size: 0x8, addend: 0x0, symName: __ZNKSt3__19basic_iosIcNS_11char_traitsIcEEE5rdbufB7v160006Ev, symObjAddr: 0x6160, symBinAddr: 0x1000072F0, symSize: 0x20 }
  - { offsetInCU: 0x120D3, offset: 0x120D3, size: 0x8, addend: 0x0, symName: __ZNKSt3__18ios_base5rdbufB7v160006Ev, symObjAddr: 0x6180, symBinAddr: 0x100007310, symSize: 0x20 }
  - { offsetInCU: 0x120F9, offset: 0x120F9, size: 0x8, addend: 0x0, symName: __ZNSt3__111char_traitsIcE11eq_int_typeEii, symObjAddr: 0x61A0, symBinAddr: 0x100007330, symSize: 0x20 }
  - { offsetInCU: 0x1212A, offset: 0x1212A, size: 0x8, addend: 0x0, symName: __ZNSt3__111char_traitsIcE3eofEv, symObjAddr: 0x61C0, symBinAddr: 0x100007350, symSize: 0x10 }
  - { offsetInCU: 0x1213E, offset: 0x1213E, size: 0x8, addend: 0x0, symName: __ZNKSt3__19basic_iosIcNS_11char_traitsIcEEE5widenB7v160006Ec, symObjAddr: 0x61D0, symBinAddr: 0x100007360, symSize: 0x80 }
  - { offsetInCU: 0x121AC, offset: 0x121AC, size: 0x8, addend: 0x0, symName: __ZNKSt3__15ctypeIcE5widenB7v160006Ec, symObjAddr: 0x6280, symBinAddr: 0x100007410, symSize: 0x30 }
  - { offsetInCU: 0x121E1, offset: 0x121E1, size: 0x8, addend: 0x0, symName: __ZNSt3__18ios_base8setstateB7v160006Ej, symObjAddr: 0x62B0, symBinAddr: 0x100007440, symSize: 0x30 }
  - { offsetInCU: 0x12218, offset: 0x12218, size: 0x8, addend: 0x0, symName: __ZNSt3__112basic_stringIcNS_11char_traitsIcEENS_9allocatorIcEEEC2B7v160006IDnEEPKc, symObjAddr: 0x62E0, symBinAddr: 0x100007470, symSize: 0x55 }
...
